(dp0
I129025
(lp1
F0.009569377990430622
aF0.4
asI118789
(lp2
F0.01092896174863388
aF0.07142857142857142
asI100358
(lp3
F0.007067137809187279
aF0.018018018018018018
aF0.015625
asI114689
(lp4
F0.2222222222222222
asI102408
(lp5
F0.08333333333333333
asI104457
(lp6
F0.02247191011235955
aF0.017857142857142856
asI100364
(lp7
F0.05172413793103448
aF0.017543859649122806
aF0.012658227848101266
aF0.0189873417721519
aF0.037037037037037035
aF0.11538461538461539
asI112654
(lp8
F0.019230769230769232
asI100371
(lp9
F0.0051813471502590676
aF0.015151515151515152
aF0.03389830508474576
asI135198
(lp10
F0.022988505747126436
asI102431
(lp11
F0.007246376811594203
aF0.05263157894736842
aF0.022988505747126436
asI114723
(lp12
F0.004796163069544364
asI116773
(lp13
F0.23076923076923078
aF0.25
asI129064
(lp14
F0.03389830508474576
asI100393
(lp15
F0.027777777777777776
asI114730
(lp16
F0.014184397163120567
aF0.022727272727272728
aF0.10526315789473684
asI131116
(lp17
F0.14285714285714285
aF0.125
aF0.16666666666666666
asI122929
(lp18
F0.013888888888888888
asI131122
(lp19
F0.014084507042253521
asI127027
(lp20
F0.2222222222222222
asI110648
(lp21
F0.017094017094017096
asI118846
(lp22
F0.3
asI129090
(lp23
F0.004830917874396135
asI108614
(lp24
F0.02702702702702703
asI100023
(lp25
F0.19047619047619047
asI106579
(lp26
F0.00819672131147541
asI106580
(lp27
F0.4
asI110679
(lp28
F0.02040816326530612
asI102489
(lp29
F0.00819672131147541
aF0.058823529411764705
aF0.14285714285714285
aF0.2222222222222222
aF0.1111111111111111
aF0.01834862385321101
asI133212
(lp30
F0.014598540145985401
asI127069
(lp31
F0.019230769230769232
asI122976
(lp32
F0.041666666666666664
asI108642
(lp33
F0.2222222222222222
asI108644
(lp34
F0.2222222222222222
asI131175
(lp35
F0.012903225806451613
aF0.019417475728155338
asI120936
(lp36
F0.07692307692307693
asI103100
(lp37
F0.022727272727272728
asI108540
(lp38
F0.4
aF0.4
asI120942
(lp39
F0.06666666666666667
asI106515
(lp40
F0.06896551724137931
aF0.02054794520547945
aF0.007168458781362007
asI131191
(lp41
F0.02
asI100478
(lp42
F0.017391304347826087
asI131203
(lp43
F0.020833333333333332
asI129159
(lp44
F0.04878048780487805
asI127122
(lp45
F0.004819277108433735
asI110739
(lp46
F0.007220216606498195
aF0.015748031496062992
asI104597
(lp47
F0.05263157894736842
aF0.010101010101010102
aF0.047619047619047616
aF0.0196078431372549
aF0.1
asI131223
(lp48
F0.004830917874396135
asI102553
(lp49
F0.015873015873015872
aF0.01020408163265306
aF0.010810810810810811
aF0.006944444444444444
aF0.004830917874396135
asI104602
(lp50
F0.06521739130434782
asI100507
(lp51
F0.03333333333333333
asI125084
(lp52
F0.0449438202247191
asI133282
(lp53
F0.020618556701030927
aF0.0111731843575419
aF0.04878048780487805
asI120997
(lp54
F0.3333333333333333
aF0.019801980198019802
aF0.18181818181818182
asI127143
(lp55
F0.007380073800738007
asI104622
(lp56
F0.2777777777777778
asI131251
(lp57
F0.034482758620689655
asI131253
(lp58
F0.011764705882352941
aF0.009478672985781991
asI108726
(lp59
F0.13333333333333333
asI100536
(lp60
F0.009615384615384616
asI116922
(lp61
F0.08695652173913043
aF0.05
aF0.019230769230769232
asI123069
(lp62
F0.017094017094017096
asI116939
(lp63
F0.04878048780487805
aF0.03389830508474576
asI104652
(lp64
F0.0106951871657754
aF0.07317073170731707
aF0.09090909090909091
aF0.07142857142857142
asI112845
(lp65
F0.011111111111111112
asI104659
(lp66
F0.030303030303030304
aF0.004819277108433735
asI135385
(lp67
F0.11764705882352941
asI131293
(lp68
F0.13333333333333333
asI119007
(lp69
F0.25
asI106725
(lp70
F0.06451612903225806
asI114920
(lp71
F0.2222222222222222
aF0.25
asI133357
(lp72
F0.2857142857142857
asI110833
(lp73
F0.5
aF0.06060606060606061
asI123126
(lp74
F0.13333333333333333
asI108795
(lp75
F0.1111111111111111
asI108796
(lp76
F0.11764705882352941
asI112898
(lp77
F0.03389830508474576
asI104708
(lp78
F0.022988505747126436
asI121093
(lp79
F0.011976047904191617
asI123142
(lp80
F0.024096385542168676
asI117000
(lp81
F0.1
asI104713
(lp82
F0.2608695652173913
asI133388
(lp83
F0.2857142857142857
asI102672
(lp84
F0.08333333333333333
asI121108
(lp85
F0.007168458781362007
asI133402
(lp86
F0.05128205128205128
asI102683
(lp87
F0.4
asI133404
(lp88
F0.01904761904761905
asI102685
(lp89
F0.09803921568627451
aF0.09090909090909091
aF0.017391304347826087
asI106783
(lp90
F0.014388489208633094
aF0.03664921465968586
aF0.028169014084507043
aF0.007936507936507936
aF0.01060070671378092
aF0.031746031746031744
asI108833
(lp91
F0.09523809523809523
aF0.017241379310344827
aF0.0625
aF0.18181818181818182
aF0.08333333333333333
aF0.034482758620689655
aF0.21428571428571427
asI107227
(lp92
F0.01818181818181818
asI133852
(lp93
F0.5
asI129328
(lp94
F0.4
asI108849
(lp95
F0.017241379310344827
asI129330
(lp96
F0.004819277108433735
aF0.045454545454545456
aF0.0625
asI108851
(lp97
F0.007246376811594203
asI108859
(lp98
F0.125
asI131392
(lp99
F0.06060606060606061
asI131395
(lp100
F0.0392156862745098
asI106820
(lp101
F0.06896551724137931
asI114784
(lp102
F0.006896551724137931
asI100688
(lp103
F0.17142857142857143
aF0.07407407407407407
aF0.10714285714285714
aF0.08
aF0.024390243902439025
asI102738
(lp104
F0.011111111111111112
asI100693
(lp105
F0.017391304347826087
asI108892
(lp106
F0.005194805194805195
aF0.09523809523809523
aF0.14285714285714285
aF0.06060606060606061
aF0.2222222222222222
aF0.1
asI121183
(lp107
F0.0425531914893617
asI108897
(lp108
F0.15384615384615385
asI112398
(lp109
F0.006944444444444444
asI123236
(lp110
F0.08695652173913043
asI131435
(lp111
F0.005141388174807198
aF0.01
aF0.010582010582010581
aF0.028846153846153848
aF0.025210084033613446
asI110957
(lp112
F0.019230769230769232
aF0.020202020202020204
aF0.007211538461538462
aF0.2
aF0.0625
aF0.04878048780487805
aF0.03225806451612903
aF0.08333333333333333
asI102769
(lp113
F0.007220216606498195
asI106868
(lp114
F0.06779661016949153
asI119157
(lp115
F0.08333333333333333
asI133499
(lp116
F0.014814814814814815
asI108928
(lp117
F0.020618556701030927
asI100740
(lp118
F0.06930693069306931
aF0.08
aF0.06896551724137931
aF0.09090909090909091
aF0.056818181818181816
aF0.1111111111111111
asI100749
(lp119
F0.010380622837370242
asI116461
(lp120
F0.014184397163120567
aF0.004819277108433735
asI113045
(lp121
F0.017241379310344827
asI102806
(lp122
F0.023809523809523808
asI131485
(lp123
F0.25
asI100774
(lp124
F0.13333333333333333
aF0.2857142857142857
asI129447
(lp125
F0.029411764705882353
asI100776
(lp126
F0.13333333333333333
aF0.2857142857142857
asI102825
(lp127
F0.007326007326007326
asI127404
(lp128
F0.4
asI113074
(lp129
F0.3333333333333333
aF0.09523809523809523
asI119219
(lp130
F0.11764705882352941
aF0.14285714285714285
aF0.05405405405405406
asI113078
(lp131
F0.017857142857142856
asI129466
(lp132
F0.047619047619047616
asI129468
(lp133
F0.010810810810810811
asI100799
(lp134
F0.045454545454545456
aF0.05714285714285714
aF0.029411764705882353
aF0.02127659574468085
aF0.047619047619047616
asI111043
(lp135
F0.15
asI106949
(lp136
F0.3333333333333333
aF0.08888888888888889
asI131528
(lp137
F0.018018018018018018
asI131769
(lp138
F0.09090909090909091
asI102858
(lp139
F0.2857142857142857
asI100812
(lp140
F0.13333333333333333
asI132173
(lp141
F0.05714285714285714
aF0.11764705882352941
asI102866
(lp142
F0.2
asI113113
(lp143
F0.4
asI131551
(lp144
F0.01694915254237288
aF0.004830917874396135
asI134566
(lp145
F0.18181818181818182
asI115174
(lp146
F0.14893617021276595
asI127463
(lp147
F0.14285714285714285
asI100775
(lp148
F0.13333333333333333
aF0.2857142857142857
asI117229
(lp149
F0.2
asI117230
(lp150
F0.2
asI115186
(lp151
F0.02247191011235955
asI104948
(lp152
F0.05128205128205128
aF0.00909090909090909
aF0.03636363636363636
aF0.015384615384615385
aF0.06
aF0.03571428571428571
aF0.004694835680751174
aF0.02564102564102564
aF0.01652892561983471
asI104949
(lp153
F0.043478260869565216
asI111094
(lp154
F0.020618556701030927
aF0.025974025974025976
asI117241
(lp155
F0.007246376811594203
asI123392
(lp156
F0.005194805194805195
asI107012
(lp157
F0.11764705882352941
aF0.030303030303030304
asI119305
(lp158
F0.0392156862745098
asI111114
(lp159
F0.03076923076923077
asI119307
(lp160
F0.0392156862745098
asI121362
(lp161
F0.12121212121212122
asI109075
(lp162
F0.4
asI109076
(lp163
F0.4
asI104985
(lp164
F0.125
aF0.06
aF0.04081632653061224
aF0.0425531914893617
aF0.03571428571428571
asI104986
(lp165
F0.03076923076923077
aF0.18181818181818182
asI117275
(lp166
F0.05263157894736842
aF0.08695652173913043
aF0.00816326530612245
aF0.09523809523809523
asI107036
(lp167
F0.058823529411764705
asI117279
(lp168
F0.10526315789473684
asI119329
(lp169
F0.5
asI131621
(lp170
F0.022727272727272728
asI102951
(lp171
F0.5
aF0.2857142857142857
aF0.4
asI102952
(lp172
F0.5
aF0.2857142857142857
aF0.4
asI135722
(lp173
F0.017857142857142856
asI111147
(lp174
F0.10526315789473684
asI117853
(lp175
F0.04878048780487805
aF0.05405405405405406
asI107059
(lp176
F0.14285714285714285
asI100916
(lp177
F0.02564102564102564
aF0.2857142857142857
asI127541
(lp178
F0.4
asI129590
(lp179
F0.045454545454545456
asI110632
(lp180
F0.004819277108433735
asI109118
(lp181
F0.02097902097902098
asI102976
(lp182
F0.04040404040404041
aF0.015625
asI102977
(lp183
F0.5
asI102978
(lp184
F0.5
asI102979
(lp185
F0.5
asI102980
(lp186
F0.5
asI113223
(lp187
F0.2222222222222222
asI113224
(lp188
F0.25
asI102985
(lp189
F0.12
asI119371
(lp190
F0.05405405405405406
asI121423
(lp191
F0.007272727272727273
asI102158
(lp192
F0.012422360248447204
aF0.03278688524590164
aF0.038461538461538464
aF0.045454545454545456
asI137814
(lp193
F0.022727272727272728
asI111197
(lp194
F0.020202020202020204
aF0.013793103448275862
asI112826
(lp195
F0.05
aF0.02
aF0.07407407407407407
asI103016
(lp196
F0.024096385542168676
asI129127
(lp197
F0.1935483870967742
aF0.023076923076923078
aF0.05263157894736842
asI107965
(lp198
F0.01092896174863388
aF0.043478260869565216
aF0.007272727272727273
asI113274
(lp199
F0.0070921985815602835
aF0.010582010582010581
aF0.017241379310344827
asI109179
(lp200
F0.01694915254237288
aF0.13333333333333333
asI100990
(lp201
F0.004807692307692308
asI105089
(lp202
F0.046511627906976744
asI103048
(lp203
F0.014084507042253521
asI137870
(lp204
F0.15384615384615385
aF0.05555555555555555
aF0.25
asI113296
(lp205
F0.017391304347826087
asI133777
(lp206
F0.02631578947368421
asI113298
(lp207
F0.017391304347826087
asI111252
(lp208
F0.05128205128205128
asI103061
(lp209
F0.013986013986013986
asI125722
(lp210
F0.014598540145985401
aF0.06896551724137931
asI116507
(lp211
F0.2222222222222222
asI137897
(lp212
F0.017857142857142856
asI127662
(lp213
F0.014084507042253521
asI115375
(lp214
F0.00516795865633075
aF0.018867924528301886
asI125621
(lp215
F0.007246376811594203
asI119481
(lp216
F0.05405405405405406
asI101052
(lp217
F0.25
asI105153
(lp218
F0.05128205128205128
asI117443
(lp219
F0.3333333333333333
asI109254
(lp220
F0.05405405405405406
asI131784
(lp221
F0.23076923076923078
asI111306
(lp222
F0.4
asI119499
(lp223
F0.06896551724137931
aF0.09090909090909091
asI101068
(lp224
F0.04081632653061224
asI121549
(lp225
F0.4
asI103118
(lp226
F0.0196078431372549
aF0.10638297872340426
asI130823
(lp227
F0.125
asI111736
(lp228
F0.11764705882352941
aF0.14285714285714285
aF0.05405405405405406
aF0.2222222222222222
aF0.2222222222222222
asI105175
(lp229
F0.1
asI121560
(lp230
F0.013986013986013986
asI101083
(lp231
F0.014545454545454545
asI125660
(lp232
F0.025
asI105181
(lp233
F0.017241379310344827
aF0.006920415224913495
asI104159
(lp234
F0.06896551724137931
asI137951
(lp235
F0.14285714285714285
asI105864
(lp236
F0.1
aF0.02
asI109283
(lp237
F0.030303030303030304
aF0.010830324909747292
aF0.061224489795918366
asI105189
(lp238
F0.11764705882352941
asI123623
(lp239
F0.1
asI123625
(lp240
F0.06451612903225806
asI111338
(lp241
F0.0273972602739726
asI111339
(lp242
F0.034482758620689655
asI111341
(lp243
F0.14
aF0.14285714285714285
asI109298
(lp244
F0.010752688172043012
aF0.004819277108433735
asI133876
(lp245
F0.014084507042253521
asI129782
(lp246
F0.08
aF0.014084507042253521
aF0.01020408163265306
aF0.08695652173913043
asI129783
(lp247
F0.08
aF0.014084507042253521
aF0.01020408163265306
aF0.08695652173913043
asI113401
(lp248
F0.017699115044247787
asI109306
(lp249
F0.2
aF0.06666666666666667
aF0.2
asI109307
(lp250
F0.2
aF0.06666666666666667
aF0.2
asI107260
(lp251
F0.058823529411764705
aF0.017699115044247787
aF0.0070921985815602835
aF0.043478260869565216
asI115454
(lp252
F0.018018018018018018
asI121600
(lp253
F0.017391304347826087
asI125700
(lp254
F0.017391304347826087
aF0.007272727272727273
aF0.046511627906976744
asI107277
(lp255
F0.2222222222222222
asI129734
(lp256
F0.061224489795918366
asI103194
(lp257
F0.013986013986013986
aF0.01015228426395939
aF0.004819277108433735
asI133920
(lp258
F0.030303030303030304
asI111394
(lp259
F0.01020408163265306
aF0.004830917874396135
asI111395
(lp260
F0.01020408163265306
aF0.004830917874396135
asI129832
(lp261
F0.019417475728155338
asI101165
(lp262
F0.2222222222222222
asI133213
(lp263
F0.030303030303030304
asI130184
(lp264
F0.018018018018018018
asI101179
(lp265
F0.25
asI115516
(lp266
F0.015151515151515152
asI101181
(lp267
F0.25
asI129856
(lp268
F0.022727272727272728
asI129860
(lp269
F0.3333333333333333
asI103239
(lp270
F0.05660377358490566
asI110392
(lp271
F0.2
asI115548
(lp272
F0.1111111111111111
aF0.029850746268656716
asI115549
(lp273
F0.02631578947368421
aF0.09523809523809523
aF0.02857142857142857
asI115550
(lp274
F0.5
asI127418
(lp275
F0.006944444444444444
asI129892
(lp276
F0.15384615384615385
asI102886
(lp277
F0.046511627906976744
asI101180
(lp278
F0.25
asI134004
(lp279
F0.11764705882352941
aF0.2
aF0.0392156862745098
asI129911
(lp280
F0.13333333333333333
asI117624
(lp281
F0.017699115044247787
aF0.25
asI103290
(lp282
F0.013651877133105802
asI113531
(lp283
F0.08
aF0.028037383177570093
aF0.03571428571428571
asI101246
(lp284
F0.046511627906976744
asI101247
(lp285
F0.02564102564102564
asI113539
(lp286
F0.07407407407407407
asI111493
(lp287
F0.03896103896103896
aF0.012
aF0.01652892561983471
asI113542
(lp288
F0.05405405405405406
asI109450
(lp289
F0.006872852233676976
asI105358
(lp290
F0.024096385542168676
asI103917
(lp291
F0.06818181818181818
aF0.375
aF0.019801980198019802
aF0.2857142857142857
asI105363
(lp292
F0.1
asI111510
(lp293
F0.014184397163120567
aF0.05555555555555555
asI113559
(lp294
F0.06451612903225806
asI126447
(lp295
F0.5
asI107421
(lp296
F0.05660377358490566
asI101279
(lp297
F0.23809523809523808
asI113569
(lp298
F0.03076923076923077
asI113571
(lp299
F0.03076923076923077
asI123812
(lp300
F0.012987012987012988
asI107429
(lp301
F0.14285714285714285
asI107430
(lp302
F0.02127659574468085
asI124147
(lp303
F0.018018018018018018
aF0.16666666666666666
aF0.125
asI121768
(lp304
F0.06451612903225806
aF0.019417475728155338
aF0.034482758620689655
aF0.3333333333333333
aF0.08333333333333333
aF0.004819277108433735
asI115625
(lp305
F0.014084507042253521
asI129973
(lp306
F0.09090909090909091
asI107449
(lp307
F0.011111111111111112
asI107450
(lp308
F0.0111731843575419
asI105411
(lp309
F0.009523809523809525
aF0.3333333333333333
asI115652
(lp310
F0.012658227848101266
asI103368
(lp311
F0.046511627906976744
aF0.5
asI103369
(lp312
F0.046511627906976744
aF0.5
asI101324
(lp313
F0.14285714285714285
asI111568
(lp314
F0.010752688172043012
asI119761
(lp315
F0.2857142857142857
asI127960
(lp316
F0.01020408163265306
aF0.022988505747126436
asI132061
(lp317
F0.25
asI101342
(lp318
F0.010752688172043012
asI107487
(lp319
F0.15384615384615385
asI134114
(lp320
F0.2222222222222222
asI127973
(lp321
F0.007220216606498195
asI134120
(lp322
F0.06666666666666667
asI103401
(lp323
F0.02197802197802198
asI136170
(lp324
F0.09090909090909091
asI123883
(lp325
F0.023809523809523808
asI123884
(lp326
F0.023809523809523808
asI107101
(lp327
F0.08333333333333333
asI127488
(lp328
F0.007220216606498195
aF0.015748031496062992
asI103436
(lp329
F0.14285714285714285
asI113677
(lp330
F0.4
asI136206
(lp331
F0.07692307692307693
asI111635
(lp332
F0.18181818181818182
asI113686
(lp333
F0.01079136690647482
asI107546
(lp334
F0.11764705882352941
asI109600
(lp335
F0.010869565217391304
aF0.02531645569620253
aF0.1111111111111111
asI107555
(lp336
F0.058823529411764705
asI123948
(lp337
F0.01079136690647482
asI113714
(lp338
F0.01694915254237288
aF0.014285714285714285
asI101428
(lp339
F0.022988505747126436
asI101429
(lp340
F0.05
asI115551
(lp341
F0.5
asI130109
(lp342
F0.024096385542168676
aF0.046511627906976744
asI105538
(lp343
F0.011976047904191617
asI126475
(lp344
F0.09090909090909091
asI103493
(lp345
F0.2857142857142857
aF0.15384615384615385
asI109642
(lp346
F0.0111731843575419
asI113741
(lp347
F0.07692307692307693
asI106680
(lp348
F0.02
asI123997
(lp349
F0.05263157894736842
asI103532
(lp350
F0.109375
aF0.00477326968973747
asI105583
(lp351
F0.010810810810810811
asI101489
(lp352
F0.11764705882352941
asI108315
(lp353
F0.006944444444444444
asI103543
(lp354
F0.2777777777777778
asI128120
(lp355
F0.005194805194805195
asI128122
(lp356
F0.06666666666666667
asI128127
(lp357
F0.08695652173913043
asI107649
(lp358
F0.015873015873015872
aF0.0273972602739726
asI103556
(lp359
F0.005194805194805195
aF0.06060606060606061
asI115848
(lp360
F0.15384615384615385
aF0.2857142857142857
asI132235
(lp361
F0.0625
asI122050
(lp362
F0.16666666666666666
asI109713
(lp363
F0.5
asI107666
(lp364
F0.1
asI122005
(lp365
F0.08695652173913043
asI117273
(lp366
F0.007352941176470588
asI119960
(lp367
F0.2857142857142857
asI132292
(lp368
F0.4
asI113818
(lp369
F0.00819672131147541
asI105632
(lp370
F0.2222222222222222
asI104987
(lp371
F0.04878048780487805
asI107688
(lp372
F0.14285714285714285
asI119977
(lp373
F0.1
asI105644
(lp374
F0.02197802197802198
aF0.1111111111111111
asI113845
(lp375
F0.05128205128205128
asI101236
(lp376
F0.2857142857142857
asI101566
(lp377
F0.020618556701030927
aF0.0111731843575419
asI120002
(lp378
F0.18181818181818182
asI107716
(lp379
F0.5
asI130248
(lp380
F0.0111731843575419
aF0.01694915254237288
aF0.004830917874396135
aF0.030303030303030304
aF0.0425531914893617
asI132298
(lp381
F0.013986013986013986
asI101581
(lp382
F0.06666666666666667
aF0.008097165991902834
asI107726
(lp383
F0.2
aF0.05555555555555555
aF0.018691588785046728
asI103631
(lp384
F0.013793103448275862
asI103634
(lp385
F0.19230769230769232
asI109782
(lp386
F0.023529411764705882
asI103883
(lp387
F0.11538461538461539
asI130270
(lp388
F0.15384615384615385
asI105697
(lp389
F0.010752688172043012
aF0.029850746268656716
asI105701
(lp390
F0.15384615384615385
asI111846
(lp391
F0.058823529411764705
asI126183
(lp392
F0.012658227848101266
aF0.2857142857142857
asI126184
(lp393
F0.012658227848101266
aF0.2857142857142857
asI133671
(lp394
F0.1111111111111111
asI109807
(lp395
F0.019801980198019802
aF0.1111111111111111
asI111856
(lp396
F0.07407407407407407
asI102611
(lp397
F0.016129032258064516
aF0.03773584905660377
asI128245
(lp398
F0.03508771929824561
asI134396
(lp399
F0.0425531914893617
aF0.125
asI109821
(lp400
F0.10344827586206896
asI122111
(lp401
F0.125
aF0.0392156862745098
asI112512
(lp402
F0.07692307692307693
asI111883
(lp403
F0.1111111111111111
asI128271
(lp404
F0.1111111111111111
aF0.02666666666666667
aF0.13333333333333333
aF0.11764705882352941
aF0.03773584905660377
asI101648
(lp405
F0.06451612903225806
aF0.08333333333333333
aF0.3333333333333333
asI101649
(lp406
F0.06666666666666667
aF0.08695652173913043
aF0.4
asI105747
(lp407
F0.006872852233676976
asI115990
(lp408
F0.0051813471502590676
aF0.007220216606498195
aF0.03225806451612903
aF0.011111111111111112
aF0.023809523809523808
asI109848
(lp409
F0.015151515151515152
asI101657
(lp410
F0.14285714285714285
asI115994
(lp411
F0.05263157894736842
asI107822
(lp412
F0.05263157894736842
asI105779
(lp413
F0.16666666666666666
asI103732
(lp414
F0.125
asI101598
(lp415
F0.014336917562724014
asI126516
(lp416
F0.2222222222222222
aF0.4
asI132410
(lp417
F0.02
asI102623
(lp418
F0.18181818181818182
asI109885
(lp419
F0.075
aF0.07692307692307693
asI124227
(lp420
F0.018018018018018018
asI128325
(lp421
F0.020618556701030927
asI122184
(lp422
F0.007380073800738007
aF0.034482758620689655
asI116045
(lp423
F0.2857142857142857
asI134478
(lp424
F0.01020408163265306
aF0.018518518518518517
asI131080
(lp425
F0.017391304347826087
asI122196
(lp426
F0.09523809523809523
asI116054
(lp427
F0.01818181818181818
asI122201
(lp428
F0.2
asI109919
(lp429
F0.011976047904191617
asI109920
(lp430
F0.04046242774566474
aF0.047619047619047616
asI109925
(lp431
F0.06666666666666667
asI101736
(lp432
F0.3333333333333333
asI132463
(lp433
F0.014705882352941176
asI107898
(lp434
F0.3333333333333333
asI130431
(lp435
F0.007352941176470588
aF0.2222222222222222
asI114049
(lp436
F0.007272727272727273
asI107912
(lp437
F0.05405405405405406
asI122257
(lp438
F0.10526315789473684
aF0.07692307692307693
aF0.09090909090909091
asI103828
(lp439
F0.1
asI104796
(lp440
F0.005154639175257732
aF0.2
aF0.05555555555555555
aF0.029411764705882353
asI100932
(lp441
F0.2
aF0.041666666666666664
asI114084
(lp442
F0.058823529411764705
asI101797
(lp443
F0.0051813471502590676
aF0.2
asI101798
(lp444
F0.05172413793103448
aF0.02
aF0.01485148514851485
aF0.015037593984962405
aF0.024096385542168676
aF0.007168458781362007
aF0.011428571428571429
aF0.03076923076923077
aF0.03278688524590164
asI103847
(lp445
F0.010810810810810811
aF0.004807692307692308
asI126378
(lp446
F0.03076923076923077
asI128427
(lp447
F0.03333333333333333
asI129253
(lp448
F0.2
asI109811
(lp449
F0.1111111111111111
aF0.2857142857142857
asI111177
(lp450
F0.008130081300813009
aF0.025
asI105912
(lp451
F0.045454545454545456
aF0.06382978723404255
aF0.05128205128205128
aF0.009174311926605505
aF0.02702702702702703
aF0.21875
aF0.10526315789473684
aF0.08
aF0.02631578947368421
asI101819
(lp452
F0.5
aF0.0425531914893617
asI101820
(lp453
F0.5
aF0.0425531914893617
asI101821
(lp454
F0.5
aF0.0425531914893617
asI116158
(lp455
F0.4444444444444444
asI101823
(lp456
F0.16666666666666666
asI130501
(lp457
F0.02
asI105931
(lp458
F0.11538461538461539
asI126412
(lp459
F0.020202020202020204
aF0.007211538461538462
asI107981
(lp460
F0.0196078431372549
asI105936
(lp461
F0.16666666666666666
asI110033
(lp462
F0.007380073800738007
aF0.038461538461538464
asI132562
(lp463
F0.08
aF0.043478260869565216
asI114134
(lp464
F0.023255813953488372
asI130519
(lp465
F0.043478260869565216
asI123813
(lp466
F0.012987012987012988
asI103907
(lp467
F0.08
asI105956
(lp468
F0.007772020725388601
asI126440
(lp469
F0.09523809523809523
asI136685
(lp470
F0.03571428571428571
asI122109
(lp471
F0.027777777777777776
asI108018
(lp472
F0.08
asI114167
(lp473
F0.4
asI103929
(lp474
F0.006872852233676976
aF0.004796163069544364
asI110074
(lp475
F0.010752688172043012
aF0.023809523809523808
aF0.007194244604316547
aF0.05128205128205128
aF0.16666666666666666
aF0.017857142857142856
asI128508
(lp476
F0.058823529411764705
aF0.3333333333333333
asI124415
(lp477
F0.04878048780487805
aF0.06666666666666667
asI103937
(lp478
F0.005194805194805195
aF0.02631578947368421
aF0.5
asI105988
(lp479
F0.15789473684210525
asI108043
(lp480
F0.09090909090909091
asI101902
(lp481
F0.033707865168539325
asI118308
(lp482
F0.4
aF0.5
asI122409
(lp483
F0.125
asI108079
(lp484
F0.014492753623188406
asI110131
(lp485
F0.043478260869565216
asI103988
(lp486
F0.25
asI103992
(lp487
F0.08695652173913043
asI106041
(lp488
F0.10526315789473684
aF0.11764705882352941
asI110139
(lp489
F0.05
asI104000
(lp490
F0.007380073800738007
asI110148
(lp491
F0.007220216606498195
asI118348
(lp492
F0.17647058823529413
aF0.09523809523809523
aF0.05555555555555555
aF0.05714285714285714
asI110158
(lp493
F0.5
asI108121
(lp494
F0.014084507042253521
asI112221
(lp495
F0.006944444444444444
asI104032
(lp496
F0.011111111111111112
aF0.12
asI104033
(lp497
F0.0273972602739726
aF0.013986013986013986
asI106086
(lp498
F0.007272727272727273
asI128617
(lp499
F0.041666666666666664
asI130672
(lp500
F0.03508771929824561
aF0.18181818181818182
asI112245
(lp501
F0.08695652173913043
asI106431
(lp502
F0.06666666666666667
aF0.01818181818181818
asI116351
(lp503
F0.018018018018018018
asI110208
(lp504
F0.125
asI124555
(lp505
F0.13333333333333333
asI128655
(lp506
F0.02666666666666667
asI118417
(lp507
F0.05128205128205128
asI132757
(lp508
F0.03389830508474576
asI134806
(lp509
F0.022727272727272728
asI132759
(lp510
F0.034482758620689655
asI124569
(lp511
F0.13333333333333333
asI130714
(lp512
F0.017241379310344827
asI130720
(lp513
F0.075
aF0.25
aF0.3333333333333333
aF0.3333333333333333
asI129308
(lp514
F0.25
asI116394
(lp515
F0.1
asI116397
(lp516
F0.007272727272727273
asI130736
(lp517
F0.007772020725388601
aF0.08823529411764706
asI107465
(lp518
F0.02631578947368421
asI136883
(lp519
F0.0111731843575419
asI120500
(lp520
F0.05405405405405406
asI114359
(lp521
F0.05263157894736842
asI102074
(lp522
F0.14705882352941177
aF0.1111111111111111
asI102082
(lp523
F0.15384615384615385
asI118470
(lp524
F0.05714285714285714
asI122568
(lp525
F0.015267175572519083
asI118480
(lp526
F0.2
asI102099
(lp527
F0.016
asI102101
(lp528
F0.08695652173913043
asI110876
(lp529
F0.025974025974025976
asI136919
(lp530
F0.07407407407407407
asI126681
(lp531
F0.08695652173913043
asI130779
(lp532
F0.022222222222222223
aF0.014084507042253521
asI100063
(lp533
F0.02631578947368421
asI117712
(lp534
F0.08333333333333333
asI102966
(lp535
F0.5
asI116460
(lp536
F0.014285714285714285
aF0.004830917874396135
asI108269
(lp537
F0.012578616352201259
aF0.2
asI128755
(lp538
F0.011976047904191617
asI116469
(lp539
F0.01694915254237288
aF0.09375
asI104535
(lp540
F0.13333333333333333
asI130687
(lp541
F0.006920415224913495
asI110332
(lp542
F0.06451612903225806
aF0.020202020202020204
aF0.06896551724137931
asI108285
(lp543
F0.013888888888888888
asI130816
(lp544
F0.030303030303030304
asI100098
(lp545
F0.022988505747126436
asI103041
(lp546
F0.007352941176470588
asI100110
(lp547
F0.08695652173913043
asI128786
(lp548
F0.13333333333333333
asI128789
(lp549
F0.022222222222222223
asI118551
(lp550
F0.011976047904191617
asI102168
(lp551
F0.25
aF0.18181818181818182
asI118553
(lp552
F0.010380622837370242
asI128795
(lp553
F0.010810810810810811
asI130844
(lp554
F0.00516795865633075
aF0.016042780748663103
aF0.004807692307692308
asI100125
(lp555
F0.3333333333333333
asI102174
(lp556
F0.18181818181818182
asI102175
(lp557
F0.0425531914893617
asI106278
(lp558
F0.4
aF0.5
aF0.125
asI114993
(lp559
F0.14285714285714285
asI106284
(lp560
F0.18181818181818182
aF0.025974025974025976
aF0.05555555555555555
aF0.11764705882352941
asI126768
(lp561
F0.2
asI121480
(lp562
F0.1111111111111111
asI112439
(lp563
F0.022988505747126436
asI122680
(lp564
F0.16666666666666666
aF0.05405405405405406
asI102204
(lp565
F0.25
aF0.13636363636363635
asI120638
(lp566
F0.075
asI122691
(lp567
F0.017699115044247787
aF0.017699115044247787
asI114505
(lp568
F0.013986013986013986
asI100170
(lp569
F0.18604651162790697
asI106315
(lp570
F0.006944444444444444
asI106316
(lp571
F0.006944444444444444
asI106317
(lp572
F0.006944444444444444
asI104273
(lp573
F0.05555555555555555
asI112466
(lp574
F0.07692307692307693
aF0.013986013986013986
aF0.01015228426395939
aF0.08333333333333333
asI132963
(lp575
F0.06451612903225806
aF0.020202020202020204
aF0.06896551724137931
asI109204
(lp576
F0.09375
asI104319
(lp577
F0.5
asI110464
(lp578
F0.01015228426395939
aF0.16666666666666666
asI104321
(lp579
F0.5
asI108419
(lp580
F0.08695652173913043
asI130950
(lp581
F0.013986013986013986
asI108423
(lp582
F0.010830324909747292
asI108426
(lp583
F0.00816326530612245
asI124812
(lp584
F0.0196078431372549
asI116621
(lp585
F0.009345794392523364
aF0.23333333333333334
aF0.06060606060606061
asI112527
(lp586
F0.09523809523809523
asI110484
(lp587
F0.004807692307692308
aF0.018018018018018018
asI106137
(lp588
F0.022222222222222223
asI119748
(lp589
F0.4
asI128925
(lp590
F0.13333333333333333
asI110495
(lp591
F0.004830917874396135
asI104356
(lp592
F0.017241379310344827
asI135086
(lp593
F0.0425531914893617
asI114675
(lp594
F0.5
asI102325
(lp595
F0.028169014084507043
asI108470
(lp596
F0.00819672131147541
asI102327
(lp597
F0.022727272727272728
asI102332
(lp598
F0.006920415224913495
aF0.045454545454545456
asI122815
(lp599
F0.18181818181818182
asI122816
(lp600
F0.18181818181818182
asI122817
(lp601
F0.18181818181818182
asI104388
(lp602
F0.05405405405405406
asI131014
(lp603
F0.125
asI114640
(lp604
F0.005154639175257732
asI114641
(lp605
F0.03508771929824561
aF0.08450704225352113
asI128980
(lp606
F0.4
asI111950
(lp607
F0.006944444444444444
asI118742
(lp608
F0.06060606060606061
asI116699
(lp609
F0.027777777777777776
asI102365
(lp610
F0.08
aF0.014084507042253521
aF0.01020408163265306
aF0.08695652173913043
asI105702
(lp611
F0.16666666666666666
asI135142
(lp612
F0.05263157894736842
asI110569
(lp613
F0.011904761904761904
asI110577
(lp614
F0.007352941176470588
asI137203
(lp615
F0.11764705882352941
asI100346
(lp616
F0.004830917874396135
aF0.05
asI131068
(lp617
F0.2857142857142857
aF0.13333333333333333
asI116733
(lp618
F0.4
as.