(dp0
I212310
(lp1
F0.4
asI200714
(lp2
F0.2857142857142857
asI204814
(lp3
F0.02247191011235955
aF0.022727272727272728
asI204821
(lp4
F0.09523809523809523
asI200726
(lp5
F0.04878048780487805
asI206878
(lp6
F0.3333333333333333
asI200738
(lp7
F0.025
asI200746
(lp8
F0.022988505747126436
asI200749
(lp9
F0.2222222222222222
asI204849
(lp10
F0.07142857142857142
asI204467
(lp11
F0.4444444444444444
asI204852
(lp12
F0.058823529411764705
asI200758
(lp13
F0.08
aF0.07692307692307693
aF0.08
aF0.08
asI204857
(lp14
F0.03389830508474576
asI200780
(lp15
F0.10526315789473684
asI200785
(lp16
F0.02
aF0.030303030303030304
aF0.03076923076923077
aF0.03076923076923077
aF0.03076923076923077
asI206936
(lp17
F0.024390243902439025
aF0.017391304347826087
aF0.017391304347826087
aF0.017391304347826087
aF0.017391304347826087
asI204890
(lp18
F0.06451612903225806
asI200795
(lp19
F0.015151515151515152
aF0.014388489208633094
aF0.015151515151515152
aF0.015151515151515152
aF0.015267175572519083
asI206960
(lp20
F0.2777777777777778
asI202870
(lp21
F0.2
aF0.2
asI206968
(lp22
F0.031746031746031744
asI206970
(lp23
F0.004830917874396135
aF0.004807692307692308
aF0.004830917874396135
aF0.004819277108433735
aF0.00477326968973747
aF0.004807692307692308
aF0.004796163069544364
aF0.004819277108433735
aF0.004694835680751174
aF0.0070921985815602835
aF0.004819277108433735
aF0.007194244604316547
aF0.004807692307692308
aF0.004830917874396135
aF0.004819277108433735
aF0.007211538461538462
aF0.004830917874396135
aF0.004830917874396135
aF0.004796163069544364
aF0.004830917874396135
aF0.004819277108433735
aF0.004819277108433735
aF0.007211538461538462
aF0.004819277108433735
aF0.004830917874396135
aF0.004819277108433735
aF0.004830917874396135
aF0.004807692307692308
aF0.004830917874396135
aF0.004830917874396135
asI202875
(lp24
F0.4
asI204934
(lp25
F0.375
asI206990
(lp26
F0.09090909090909091
asI202908
(lp27
F0.014705882352941176
aF0.014814814814814815
asI200872
(lp28
F0.012422360248447204
aF0.012987012987012988
aF0.012987012987012988
aF0.012903225806451613
asI202923
(lp29
F0.08
asI207021
(lp30
F0.06779661016949153
asI202948
(lp31
F0.11764705882352941
asI200903
(lp32
F0.01485148514851485
aF0.011976047904191617
aF0.011976047904191617
aF0.04046242774566474
aF0.011904761904761904
aF0.011976047904191617
aF0.011976047904191617
aF0.011976047904191617
aF0.011764705882352941
asI213198
(lp33
F0.06060606060606061
asI209103
(lp34
F0.14285714285714285
asI211152
(lp35
F0.14285714285714285
asI205013
(lp36
F0.2
asI207065
(lp37
F0.125
asI202974
(lp38
F0.08695652173913043
aF0.08695652173913043
aF0.08333333333333333
aF0.08695652173913043
aF0.08695652173913043
aF0.08695652173913043
asI206203
(lp39
F0.2
asI202985
(lp40
F0.4
asI207084
(lp41
F0.2222222222222222
aF0.25
asI207087
(lp42
F0.058823529411764705
aF0.05714285714285714
asI202999
(lp43
F0.14285714285714285
asI200952
(lp44
F0.2857142857142857
asI205050
(lp45
F0.010380622837370242
aF0.006920415224913495
aF0.006944444444444444
aF0.013651877133105802
aF0.006872852233676976
aF0.006920415224913495
aF0.006872852233676976
aF0.006944444444444444
aF0.006944444444444444
aF0.006944444444444444
aF0.006944444444444444
aF0.006872852233676976
aF0.006944444444444444
aF0.006944444444444444
aF0.006944444444444444
aF0.006896551724137931
aF0.010380622837370242
aF0.006944444444444444
aF0.006920415224913495
asI207105
(lp46
F0.045454545454545456
asI205058
(lp47
F0.07317073170731707
asI205867
(lp48
F0.4
asI203013
(lp49
F0.02702702702702703
aF0.030303030303030304
aF0.029411764705882353
asI207116
(lp50
F0.041666666666666664
asI205072
(lp51
F0.09090909090909091
asI205079
(lp52
F0.13333333333333333
asI213273
(lp53
F0.043478260869565216
asI205084
(lp54
F0.1
asI203045
(lp55
F0.017241379310344827
aF0.017857142857142856
aF0.017699115044247787
aF0.017699115044247787
aF0.017857142857142856
aF0.017857142857142856
asI207142
(lp56
F0.18181818181818182
asI205101
(lp57
F0.125
asI205107
(lp58
F0.1
asI207160
(lp59
F0.15384615384615385
aF0.16666666666666666
aF0.16666666666666666
aF0.16666666666666666
asI206900
(lp60
F0.10638297872340426
aF0.046511627906976744
asI203077
(lp61
F0.05128205128205128
aF0.04878048780487805
asI205131
(lp62
F0.13333333333333333
asI205135
(lp63
F0.05263157894736842
aF0.05405405405405406
asI203091
(lp64
F0.02631578947368421
asI203093
(lp65
F0.2857142857142857
asI201049
(lp66
F0.14
aF0.04878048780487805
aF0.047619047619047616
asI201068
(lp67
F0.125
asI201075
(lp68
F0.2857142857142857
asI201084
(lp69
F0.18181818181818182
aF0.18181818181818182
aF0.18181818181818182
asI201086
(lp70
F0.14285714285714285
asI203135
(lp71
F0.017543859649122806
aF0.04040404040404041
aF0.019801980198019802
aF0.020202020202020204
aF0.020833333333333332
asI203136
(lp72
F0.010810810810810811
aF0.03664921465968586
aF0.010752688172043012
aF0.010582010582010581
aF0.01092896174863388
asI203144
(lp73
F0.075
aF0.14893617021276595
asI205202
(lp74
F0.056818181818181816
aF0.025974025974025976
aF0.025974025974025976
asI207252
(lp75
F0.5
asI203162
(lp76
F0.2857142857142857
aF0.2857142857142857
asI205222
(lp77
F0.03571428571428571
aF0.043478260869565216
aF0.045454545454545456
asI207274
(lp78
F0.05660377358490566
asI207275
(lp79
F0.11538461538461539
asI205228
(lp80
F0.08695652173913043
asI213431
(lp81
F0.5
asI201148
(lp82
F0.16666666666666666
asI207293
(lp83
F0.16666666666666666
asI205250
(lp84
F0.06666666666666667
aF0.06666666666666667
asI207309
(lp85
F0.13636363636363635
aF0.07142857142857142
asI209365
(lp86
F0.05128205128205128
asI205271
(lp87
F0.16666666666666666
asI207325
(lp88
F0.09523809523809523
aF0.09090909090909091
asI207326
(lp89
F0.05
asI213755
(lp90
F0.11764705882352941
asI205290
(lp91
F0.03076923076923077
asI205296
(lp92
F0.05405405405405406
asI205300
(lp93
F0.022727272727272728
aF0.022988505747126436
aF0.022727272727272728
aF0.0449438202247191
aF0.022988505747126436
asI203255
(lp94
F0.08333333333333333
aF0.08695652173913043
aF0.21875
aF0.08695652173913043
aF0.09090909090909091
asI203257
(lp95
F0.04081632653061224
aF0.024096385542168676
asI203259
(lp96
F0.25
asI209407
(lp97
F0.2222222222222222
aF0.2222222222222222
asI207361
(lp98
F0.18181818181818182
asI203268
(lp99
F0.11764705882352941
asI201221
(lp100
F0.23076923076923078
asI201223
(lp101
F0.25
aF0.25
aF0.25
aF0.25
asI203284
(lp102
F0.15384615384615385
asI201242
(lp103
F0.08695652173913043
aF0.08695652173913043
asI207387
(lp104
F0.05555555555555555
aF0.058823529411764705
aF0.06060606060606061
aF0.08823529411764706
asI203293
(lp105
F0.2857142857142857
asI201252
(lp106
F0.16666666666666666
asI205368
(lp107
F0.13333333333333333
asI212063
(lp108
F0.5
asI201281
(lp109
F0.015037593984962405
aF0.0196078431372549
aF0.020202020202020204
aF0.02040816326530612
aF0.020202020202020204
asI213581
(lp110
F0.08333333333333333
asI205393
(lp111
F0.06451612903225806
asI207630
(lp112
F0.017391304347826087
aF0.017241379310344827
aF0.017699115044247787
aF0.018018018018018018
asI205399
(lp113
F0.05
aF0.05
asI203352
(lp114
F0.075
asI207449
(lp115
F0.07407407407407407
asI203355
(lp116
F0.2
aF0.2
aF0.25
asI207452
(lp117
F0.5
asI203360
(lp118
F0.018018018018018018
aF0.018018018018018018
aF0.018018018018018018
asI207458
(lp119
F0.038461538461538464
asI205414
(lp120
F0.2222222222222222
aF0.2
asI207463
(lp121
F0.1111111111111111
asI203369
(lp122
F0.09523809523809523
asI205418
(lp123
F0.19047619047619047
asI207472
(lp124
F0.02
aF0.019230769230769232
aF0.02
asI207813
(lp125
F0.06666666666666667
aF0.0625
asI200127
(lp126
F0.3
asI207488
(lp127
F0.017391304347826087
aF0.01652892561983471
aF0.017094017094017096
aF0.017241379310344827
aF0.025210084033613446
asI200128
(lp128
F0.2
asI211594
(lp129
F0.5
asI209552
(lp130
F0.2857142857142857
asI207515
(lp131
F0.125
asI203421
(lp132
F0.043478260869565216
aF0.0425531914893617
asI201377
(lp133
F0.25
asI201382
(lp134
F0.11764705882352941
aF0.1111111111111111
asI214129
(lp135
F0.03571428571428571
asI201392
(lp136
F0.19230769230769232
asI205496
(lp137
F0.06896551724137931
asI205941
(lp138
F0.3333333333333333
asI203459
(lp139
F0.09803921568627451
asI203460
(lp140
F0.15384615384615385
asI205510
(lp141
F0.09090909090909091
asI203470
(lp142
F0.07407407407407407
asI203471
(lp143
F0.10714285714285714
asI207573
(lp144
F0.02564102564102564
aF0.029850746268656716
aF0.030303030303030304
aF0.029850746268656716
aF0.02857142857142857
aF0.030303030303030304
aF0.030303030303030304
aF0.030303030303030304
asI203480
(lp145
F0.13333333333333333
asI203481
(lp146
F0.14285714285714285
asI205530
(lp147
F0.029411764705882353
aF0.0392156862745098
asI207581
(lp148
F0.3333333333333333
asI203488
(lp149
F0.18181818181818182
asI206971
(lp150
F0.07407407407407407
asI205540
(lp151
F0.2857142857142857
asI205543
(lp152
F0.1111111111111111
asI201449
(lp153
F0.3333333333333333
asI201452
(lp154
F0.08
asI205555
(lp155
F0.5
aF0.5
asI207607
(lp156
F0.4
aF0.4
asI203514
(lp157
F0.5
aF0.5
aF0.5
asI203515
(lp158
F0.5
aF0.5
aF0.5
aF0.5
asI207615
(lp159
F0.03389830508474576
asI205568
(lp160
F0.15384615384615385
aF0.1111111111111111
asI205569
(lp161
F0.05555555555555555
asI203525
(lp162
F0.08695652173913043
aF0.08695652173913043
aF0.09090909090909091
aF0.09090909090909091
asI207623
(lp163
F0.08695652173913043
asI211724
(lp164
F0.2
asI201486
(lp165
F0.014084507042253521
aF0.013986013986013986
aF0.013986013986013986
aF0.013986013986013986
aF0.014084507042253521
aF0.013986013986013986
aF0.014084507042253521
aF0.014084507042253521
aF0.013986013986013986
aF0.014084507042253521
aF0.013986013986013986
asI203541
(lp166
F0.058823529411764705
asI203542
(lp167
F0.5
asI211735
(lp168
F0.03773584905660377
aF0.0425531914893617
aF0.0425531914893617
asI209690
(lp169
F0.2
asI207651
(lp170
F0.05263157894736842
aF0.05128205128205128
asI203557
(lp171
F0.022222222222222223
aF0.043478260869565216
aF0.022222222222222223
aF0.022727272727272728
aF0.022727272727272728
asI205613
(lp172
F0.1111111111111111
asI203570
(lp173
F0.2222222222222222
asI201526
(lp174
F0.17142857142857143
asI207673
(lp175
F0.02631578947368421
aF0.08450704225352113
asI205632
(lp176
F0.10526315789473684
asI203586
(lp177
F0.02702702702702703
asI200162
(lp178
F0.3333333333333333
asI209742
(lp179
F0.02127659574468085
aF0.025974025974025976
aF0.02631578947368421
asI205657
(lp180
F0.16666666666666666
asI201562
(lp181
F0.2222222222222222
asI207713
(lp182
F0.01818181818181818
aF0.017699115044247787
asI203628
(lp183
F0.14285714285714285
asI205679
(lp184
F0.022727272727272728
aF0.02247191011235955
asI208021
(lp185
F0.21428571428571427
asI201601
(lp186
F0.08
aF0.06896551724137931
asI205698
(lp187
F0.05405405405405406
aF0.05405405405405406
aF0.05405405405405406
aF0.05555555555555555
asI205702
(lp188
F0.019801980198019802
aF0.0196078431372549
aF0.02
aF0.02
aF0.019801980198019802
aF0.02
aF0.028846153846153848
aF0.02
asI207753
(lp189
F0.2857142857142857
asI201613
(lp190
F0.25
asI205712
(lp191
F0.2
asI205716
(lp192
F0.07692307692307693
asI207769
(lp193
F0.05405405405405406
aF0.05405405405405406
asI213919
(lp194
F0.01834862385321101
aF0.017857142857142856
aF0.01652892561983471
aF0.017857142857142856
aF0.018018018018018018
aF0.01818181818181818
asI200185
(lp195
F0.05660377358490566
asI201637
(lp196
F0.3333333333333333
asI208369
(lp197
F0.3333333333333333
aF0.4
asI207784
(lp198
F0.15384615384615385
asI201647
(lp199
F0.06521739130434782
aF0.043478260869565216
asI203697
(lp200
F0.047619047619047616
asI203705
(lp201
F0.06666666666666667
asI207803
(lp202
F0.05714285714285714
asI207805
(lp203
F0.4
asI203717
(lp204
F0.0425531914893617
aF0.0425531914893617
aF0.0425531914893617
aF0.041666666666666664
aF0.0425531914893617
asI205768
(lp205
F0.041666666666666664
aF0.061224489795918366
asI213966
(lp206
F0.18181818181818182
asI203728
(lp207
F0.0273972602739726
aF0.0273972602739726
aF0.02631578947368421
aF0.027777777777777776
asI203735
(lp208
F0.014545454545454545
aF0.007326007326007326
aF0.007352941176470588
aF0.007380073800738007
aF0.007272727272727273
aF0.007380073800738007
aF0.007352941176470588
aF0.007352941176470588
aF0.007380073800738007
aF0.007380073800738007
aF0.007352941176470588
asI201699
(lp209
F0.12
asI205796
(lp210
F0.1111111111111111
aF0.08333333333333333
asI209898
(lp211
F0.25
asI203768
(lp212
F0.024096385542168676
aF0.024096385542168676
aF0.023809523809523808
aF0.024096385542168676
aF0.024096385542168676
asI211963
(lp213
F0.1111111111111111
asI201730
(lp214
F0.2222222222222222
aF0.25
aF0.2222222222222222
asI207881
(lp215
F0.06666666666666667
asI203053
(lp216
F0.0111731843575419
aF0.011111111111111112
aF0.0106951871657754
aF0.011111111111111112
aF0.0111731843575419
aF0.0111731843575419
asI207897
(lp217
F0.11538461538461539
asI203610
(lp218
F0.015625
aF0.010752688172043012
aF0.010810810810810811
aF0.010810810810810811
aF0.010752688172043012
aF0.015873015873015872
aF0.010752688172043012
aF0.010752688172043012
aF0.010810810810810811
aF0.010810810810810811
aF0.016042780748663103
aF0.010582010582010581
asI203807
(lp219
F0.125
aF0.11764705882352941
asI211237
(lp220
F0.25
asI205864
(lp221
F0.06896551724137931
aF0.06896551724137931
asI205865
(lp222
F0.027777777777777776
asI203271
(lp223
F0.4
asI203829
(lp224
F0.14285714285714285
aF0.15384615384615385
aF0.14285714285714285
asI207927
(lp225
F0.017094017094017096
asI207932
(lp226
F0.03571428571428571
asI205887
(lp227
F0.08333333333333333
asI207944
(lp228
F0.05263157894736842
asI203853
(lp229
F0.2222222222222222
asI207959
(lp230
F0.2222222222222222
asI201821
(lp231
F0.1
asI201822
(lp232
F0.15
asI207967
(lp233
F0.029411764705882353
asI201828
(lp234
F0.06896551724137931
asI203884
(lp235
F0.4
asI201841
(lp236
F0.4
asI201845
(lp237
F0.06666666666666667
aF0.05128205128205128
asI207992
(lp238
F0.5
asI201849
(lp239
F0.08333333333333333
aF0.12
aF0.07692307692307693
asI201850
(lp240
F0.02531645569620253
aF0.02666666666666667
asI203901
(lp241
F0.09523809523809523
asI203904
(lp242
F0.028169014084507043
asI201857
(lp243
F0.0196078431372549
aF0.019230769230769232
aF0.019417475728155338
aF0.0196078431372549
aF0.019417475728155338
aF0.019417475728155338
asI201859
(lp244
F0.14285714285714285
asI214148
(lp245
F0.3333333333333333
asI207724
(lp246
F0.2
aF0.2
asI208262
(lp247
F0.5
asI203920
(lp248
F0.18604651162790697
asI201877
(lp249
F0.14285714285714285
asI205976
(lp250
F0.2222222222222222
asI207044
(lp251
F0.2
asI208031
(lp252
F0.4
asI201891
(lp253
F0.3333333333333333
asI203941
(lp254
F0.06060606060606061
asI201895
(lp255
F0.3333333333333333
asI205993
(lp256
F0.014084507042253521
aF0.013986013986013986
aF0.0273972602739726
aF0.014084507042253521
aF0.013793103448275862
aF0.014084507042253521
aF0.014084507042253521
asI212139
(lp257
F0.2857142857142857
asI205997
(lp258
F0.2608695652173913
asI201907
(lp259
F0.017391304347826087
aF0.03278688524590164
aF0.017241379310344827
aF0.017241379310344827
aF0.017241379310344827
aF0.017391304347826087
asI206006
(lp260
F0.04878048780487805
asI206013
(lp261
F0.058823529411764705
asI203973
(lp262
F0.08
asI201929
(lp263
F0.034482758620689655
asI202615
(lp264
F0.01020408163265306
aF0.01020408163265306
aF0.01015228426395939
aF0.010101010101010102
aF0.01015228426395939
aF0.020202020202020204
aF0.01020408163265306
aF0.01020408163265306
aF0.01015228426395939
aF0.01020408163265306
aF0.01020408163265306
aF0.01020408163265306
aF0.01
aF0.01020408163265306
asI206040
(lp265
F0.07692307692307693
asI201951
(lp266
F0.023809523809523808
aF0.023529411764705882
aF0.023809523809523808
aF0.023809523809523808
asI204000
(lp267
F0.2
asI208099
(lp268
F0.046511627906976744
aF0.045454545454545456
asI206054
(lp269
F0.11764705882352941
aF0.11764705882352941
aF0.125
asI206055
(lp270
F0.03508771929824561
aF0.03773584905660377
asI208107
(lp271
F0.2
asI206060
(lp272
F0.23809523809523808
aF0.11764705882352941
aF0.1111111111111111
aF0.09523809523809523
asI206061
(lp273
F0.2222222222222222
asI201967
(lp274
F0.18181818181818182
aF0.18181818181818182
asI201984
(lp275
F0.07407407407407407
asI201987
(lp276
F0.08695652173913043
aF0.1
asI204042
(lp277
F0.4
asI201995
(lp278
F0.10526315789473684
asI214284
(lp279
F0.18181818181818182
asI206098
(lp280
F0.125
asI202004
(lp281
F0.1111111111111111
aF0.125
asI208159
(lp282
F0.06060606060606061
aF0.06060606060606061
aF0.05263157894736842
asI202017
(lp283
F0.05405405405405406
aF0.05
asI202019
(lp284
F0.1935483870967742
asI206135
(lp285
F0.07407407407407407
asI204090
(lp286
F0.05714285714285714
aF0.012578616352201259
aF0.012658227848101266
aF0.012658227848101266
aF0.012658227848101266
asI204104
(lp287
F0.14285714285714285
aF0.14285714285714285
aF0.15384615384615385
asI202061
(lp288
F0.5
asI204112
(lp289
F0.008097165991902834
aF0.007168458781362007
aF0.00819672131147541
aF0.00819672131147541
aF0.007936507936507936
aF0.00816326530612245
aF0.00819672131147541
aF0.008130081300813009
aF0.012
aF0.00819672131147541
aF0.00816326530612245
asI206166
(lp290
F0.06896551724137931
asI200036
(lp291
F0.4
asI206184
(lp292
F0.016
aF0.015625
aF0.023076923076923078
asI202090
(lp293
F0.05128205128205128
aF0.05263157894736842
asI200044
(lp294
F0.25
asI202098
(lp295
F0.09090909090909091
asI200051
(lp296
F0.11538461538461539
aF0.08695652173913043
asI206199
(lp297
F0.15789473684210525
asI210297
(lp298
F0.1
asI200059
(lp299
F0.0051813471502590676
aF0.0051813471502590676
aF0.005194805194805195
aF0.005194805194805195
aF0.005154639175257732
aF0.007772020725388601
aF0.005194805194805195
aF0.005154639175257732
aF0.00516795865633075
aF0.0051813471502590676
aF0.005194805194805195
aF0.005194805194805195
aF0.007772020725388601
aF0.00516795865633075
aF0.005141388174807198
asI202110
(lp300
F0.05128205128205128
asI202111
(lp301
F0.009615384615384616
aF0.00909090909090909
aF0.009523809523809525
aF0.009174311926605505
aF0.009345794392523364
aF0.009569377990430622
aF0.009478672985781991
asI206211
(lp302
F0.2857142857142857
asI202116
(lp303
F0.23076923076923078
asI202118
(lp304
F0.02631578947368421
asI206219
(lp305
F0.05714285714285714
asI202124
(lp306
F0.15384615384615385
asI204173
(lp307
F0.4
asI212367
(lp308
F0.4
asI200082
(lp309
F0.4
asI211865
(lp310
F0.046511627906976744
aF0.045454545454545456
asI202138
(lp311
F0.09090909090909091
asI204189
(lp312
F0.5
aF0.5
asI206246
(lp313
F0.08333333333333333
asI210343
(lp314
F0.022988505747126436
aF0.047619047619047616
aF0.022988505747126436
asI200118
(lp315
F0.10526315789473684
asI202169
(lp316
F0.03389830508474576
aF0.034482758620689655
asI200124
(lp317
F0.007067137809187279
aF0.007246376811594203
aF0.007220216606498195
aF0.007220216606498195
aF0.0070921985815602835
aF0.01079136690647482
aF0.007220216606498195
aF0.007246376811594203
aF0.01079136690647482
aF0.007220216606498195
aF0.007220216606498195
asI202173
(lp318
F0.25
asI204223
(lp319
F0.125
asI202176
(lp320
F0.25
asI202178
(lp321
F0.12121212121212122
aF0.06666666666666667
asI206277
(lp322
F0.09523809523809523
asI206280
(lp323
F0.13333333333333333
asI200139
(lp324
F0.14285714285714285
asI200147
(lp325
F0.058823529411764705
asI200148
(lp326
F0.5
asI214485
(lp327
F0.4
asI206297
(lp328
F0.03508771929824561
aF0.03508771929824561
asI202202
(lp329
F0.3333333333333333
asI206306
(lp330
F0.4
asI200166
(lp331
F0.125
asI205319
(lp332
F0.125
aF0.09375
asI203819
(lp333
F0.043478260869565216
asI212469
(lp334
F0.4
aF0.4
asI204281
(lp335
F0.012658227848101266
aF0.011428571428571429
aF0.02127659574468085
aF0.014184397163120567
aF0.014285714285714285
aF0.014184397163120567
aF0.014285714285714285
aF0.014184397163120567
asI206332
(lp336
F0.034482758620689655
asI202239
(lp337
F0.07692307692307693
aF0.05263157894736842
asI204291
(lp338
F0.13333333333333333
asI202251
(lp339
F0.1111111111111111
aF0.11764705882352941
aF0.09523809523809523
asI200207
(lp340
F0.1
asI202260
(lp341
F0.06060606060606061
asI202262
(lp342
F0.11764705882352941
asI212505
(lp343
F0.09090909090909091
asI203695
(lp344
F0.2857142857142857
asI205061
(lp345
F0.13333333333333333
asI200226
(lp346
F0.13333333333333333
asI204324
(lp347
F0.03333333333333333
aF0.109375
aF0.03333333333333333
aF0.03389830508474576
asI204328
(lp348
F0.013986013986013986
aF0.02054794520547945
aF0.02097902097902098
aF0.014084507042253521
asI200233
(lp349
F0.05263157894736842
asI212534
(lp350
F0.0625
asI208442
(lp351
F0.2222222222222222
asI202310
(lp352
F0.5
aF0.5
asI210507
(lp353
F0.05555555555555555
asI208461
(lp354
F0.2222222222222222
asI208465
(lp355
F0.125
aF0.13333333333333333
asI206420
(lp356
F0.2
aF0.13333333333333333
asI206421
(lp357
F0.014336917562724014
aF0.007272727272727273
aF0.007168458781362007
aF0.01060070671378092
aF0.010830324909747292
aF0.007246376811594203
aF0.010830324909747292
aF0.007220216606498195
aF0.007272727272727273
aF0.007272727272727273
aF0.007168458781362007
aF0.007272727272727273
aF0.007246376811594203
aF0.007272727272727273
asI206423
(lp358
F0.14285714285714285
asI204377
(lp359
F0.25
asI202341
(lp360
F0.06
aF0.04878048780487805
aF0.04878048780487805
asI206440
(lp361
F0.11764705882352941
asI204395
(lp362
F0.0625
aF0.13333333333333333
asI204398
(lp363
F0.2
asI212591
(lp364
F0.0625
asI202357
(lp365
F0.0392156862745098
aF0.0392156862745098
aF0.0392156862745098
asI202358
(lp366
F0.11764705882352941
asI200316
(lp367
F0.045454545454545456
asI202366
(lp368
F0.13333333333333333
asI202369
(lp369
F0.5
asI206466
(lp370
F0.022988505747126436
aF0.033707865168539325
aF0.022988505747126436
aF0.022727272727272728
asI206443
(lp371
F0.5
aF0.5
asI202375
(lp372
F0.18181818181818182
asI207127
(lp373
F0.3333333333333333
aF0.4
asI200335
(lp374
F0.05172413793103448
asI204434
(lp375
F0.1
aF0.09523809523809523
asI200339
(lp376
F0.4
asI201669
(lp377
F0.08
asI202401
(lp378
F0.046511627906976744
aF0.046511627906976744
asI200357
(lp379
F0.08
asI200360
(lp380
F0.045454545454545456
aF0.10344827586206896
aF0.07692307692307693
asI200363
(lp381
F0.05263157894736842
aF0.05128205128205128
aF0.075
asI202415
(lp382
F0.15384615384615385
asI204464
(lp383
F0.5
asI203720
(lp384
F0.02564102564102564
asI206515
(lp385
F0.034482758620689655
aF0.03389830508474576
aF0.034482758620689655
asI204474
(lp386
F0.1
asI206524
(lp387
F0.025
asI208576
(lp388
F0.3333333333333333
asI204406
(lp389
F0.047619047619047616
asI206534
(lp390
F0.03076923076923077
aF0.06666666666666667
aF0.09375
asI206545
(lp391
F0.0189873417721519
asI206552
(lp392
F0.1111111111111111
asI200410
(lp393
F0.4
asI200415
(lp394
F0.011111111111111112
aF0.011111111111111112
aF0.0111731843575419
aF0.01092896174863388
aF0.010869565217391304
aF0.0111731843575419
aF0.011111111111111112
aF0.0111731843575419
asI210658
(lp395
F0.2222222222222222
aF0.16666666666666666
aF0.2222222222222222
asI206568
(lp396
F0.03278688524590164
aF0.07692307692307693
asI204526
(lp397
F0.06666666666666667
aF0.06451612903225806
asI200441
(lp398
F0.03225806451612903
asI206594
(lp399
F0.18181818181818182
asI204549
(lp400
F0.18181818181818182
aF0.25
asI200456
(lp401
F0.14705882352941177
aF0.06451612903225806
aF0.06451612903225806
aF0.06451612903225806
asI206829
(lp402
F0.013793103448275862
aF0.013888888888888888
aF0.013888888888888888
asI206604
(lp403
F0.05555555555555555
asI204559
(lp404
F0.038461538461538464
aF0.020618556701030927
asI206614
(lp405
F0.2857142857142857
aF0.2857142857142857
aF0.2857142857142857
asI200479
(lp406
F0.17647058823529413
asI204578
(lp407
F0.01818181818181818
aF0.02631578947368421
aF0.018018018018018018
asI206630
(lp408
F0.037037037037037035
aF0.03076923076923077
asI202535
(lp409
F0.015873015873015872
aF0.015748031496062992
aF0.015748031496062992
asI204423
(lp410
F0.10526315789473684
asI202540
(lp411
F0.05555555555555555
asI202542
(lp412
F0.05172413793103448
aF0.04081632653061224
asI206639
(lp413
F0.05405405405405406
asI206642
(lp414
F0.023255813953488372
asI207155
(lp415
F0.061224489795918366
asI200503
(lp416
F0.06382978723404255
aF0.05405405405405406
aF0.05263157894736842
aF0.05405405405405406
asI206648
(lp417
F0.018018018018018018
aF0.018518518518518517
asI206678
(lp418
F0.08333333333333333
asI204633
(lp419
F0.2857142857142857
asI204642
(lp420
F0.2857142857142857
asI204645
(lp421
F0.014492753623188406
aF0.014598540145985401
aF0.014598540145985401
asI204663
(lp422
F0.23333333333333334
aF0.08333333333333333
asI206714
(lp423
F0.023809523809523808
asI200571
(lp424
F0.16666666666666666
asI200574
(lp425
F0.10526315789473684
asI202624
(lp426
F0.046511627906976744
aF0.03636363636363636
asI204678
(lp427
F0.14285714285714285
asI204683
(lp428
F0.06
aF0.0425531914893617
asI202637
(lp429
F0.0425531914893617
aF0.06818181818181818
aF0.046511627906976744
aF0.08888888888888889
asI202733
(lp430
F0.02666666666666667
asI214928
(lp431
F0.1
asI202648
(lp432
F0.020618556701030927
aF0.020618556701030927
aF0.020202020202020204
aF0.020618556701030927
asI204697
(lp433
F0.4
asI206747
(lp434
F0.058823529411764705
asI202662
(lp435
F0.1
aF0.034482758620689655
aF0.03571428571428571
asI200617
(lp436
F0.06451612903225806
aF0.06666666666666667
aF0.05128205128205128
aF0.06896551724137931
asI212908
(lp437
F0.04878048780487805
asI202669
(lp438
F0.0392156862745098
asI207994
(lp439
F0.11764705882352941
asI204727
(lp440
F0.18181818181818182
asI206776
(lp441
F0.1
asI200636
(lp442
F0.02564102564102564
aF0.01694915254237288
aF0.017241379310344827
aF0.01694915254237288
asI200639
(lp443
F0.05
asI202690
(lp444
F0.2
asI202694
(lp445
F0.06896551724137931
aF0.08333333333333333
asI202695
(lp446
F0.2777777777777778
aF0.13333333333333333
asI200655
(lp447
F0.027777777777777776
aF0.028169014084507043
aF0.03896103896103896
asI202704
(lp448
F0.09523809523809523
asI200666
(lp449
F0.06930693069306931
aF0.02197802197802198
aF0.02197802197802198
aF0.022222222222222223
asI214693
(lp450
F0.1111111111111111
asI212304
(lp451
F0.2857142857142857
aF0.2857142857142857
asI202722
(lp452
F0.030303030303030304
aF0.020618556701030927
asI202726
(lp453
F0.016129032258064516
aF0.015384615384615385
aF0.01694915254237288
aF0.01694915254237288
aF0.01694915254237288
asI202730
(lp454
F0.05555555555555555
asI202732
(lp455
F0.018018018018018018
aF0.017699115044247787
aF0.018691588785046728
aF0.019230769230769232
aF0.028037383177570093
aF0.018867924528301886
aF0.019230769230769232
aF0.01904761904761905
asI204781
(lp456
F0.13333333333333333
aF0.13333333333333333
aF0.13333333333333333
aF0.08
asI205139
(lp457
F0.11764705882352941
aF0.1111111111111111
asI212982
(lp458
F0.03225806451612903
asI205473
(lp459
F0.3333333333333333
as.