(dp0
I212310
(lp1
F0.6666666666666666
asI200714
(lp2
F0.5
asI204814
(lp3
F0.023255813953488372
aF0.023255813953488372
asI204821
(lp4
F0.11764705882352941
asI200726
(lp5
F0.05405405405405406
asI206878
(lp6
F0.5
asI200738
(lp7
F0.02564102564102564
asI200746
(lp8
F0.023529411764705882
asI200749
(lp9
F0.2857142857142857
asI204849
(lp10
F0.07692307692307693
asI204467
(lp11
F0.8
asI204852
(lp12
F0.0625
asI200758
(lp13
F0.08695652173913043
aF0.08695652173913043
aF0.08695652173913043
aF0.08695652173913043
asI204857
(lp14
F0.03508771929824561
asI200780
(lp15
F0.13333333333333333
asI200785
(lp16
F0.031746031746031744
aF0.031746031746031744
aF0.031746031746031744
aF0.031746031746031744
aF0.031746031746031744
asI206936
(lp17
F0.02654867256637168
aF0.017699115044247787
aF0.017699115044247787
aF0.017699115044247787
aF0.017699115044247787
asI204890
(lp18
F0.06896551724137931
asI200795
(lp19
F0.015503875968992248
aF0.015503875968992248
aF0.015503875968992248
aF0.015503875968992248
aF0.015503875968992248
asI206960
(lp20
F0.4166666666666667
asI202870
(lp21
F0.25
aF0.25
asI206968
(lp22
F0.03773584905660377
asI206970
(lp23
F0.0048543689320388345
aF0.0048543689320388345
aF0.0048543689320388345
aF0.0048543689320388345
aF0.0048543689320388345
aF0.0048543689320388345
aF0.0048543689320388345
aF0.0048543689320388345
aF0.0048543689320388345
aF0.007281553398058253
aF0.0048543689320388345
aF0.007281553398058253
aF0.0048543689320388345
aF0.0048543689320388345
aF0.0048543689320388345
aF0.007281553398058253
aF0.0048543689320388345
aF0.0048543689320388345
aF0.0048543689320388345
aF0.0048543689320388345
aF0.0048543689320388345
aF0.0048543689320388345
aF0.007281553398058253
aF0.0048543689320388345
aF0.0048543689320388345
aF0.0048543689320388345
aF0.0048543689320388345
aF0.0048543689320388345
aF0.0048543689320388345
aF0.0048543689320388345
asI202875
(lp24
F0.6666666666666666
asI204934
(lp25
F0.6
asI206990
(lp26
F0.13333333333333333
asI202908
(lp27
F0.015037593984962405
aF0.015037593984962405
asI200872
(lp28
F0.013157894736842105
aF0.013157894736842105
aF0.013157894736842105
aF0.013157894736842105
asI202923
(lp29
F0.09523809523809523
asI207021
(lp30
F0.08163265306122448
asI202948
(lp31
F0.14285714285714285
asI200903
(lp32
F0.01818181818181818
aF0.012121212121212121
aF0.012121212121212121
aF0.04242424242424243
aF0.012121212121212121
aF0.012121212121212121
aF0.012121212121212121
aF0.012121212121212121
aF0.012121212121212121
asI213198
(lp33
F0.08
asI209103
(lp34
F0.16666666666666666
asI211152
(lp35
F0.16666666666666666
asI205013
(lp36
F0.2857142857142857
asI207065
(lp37
F0.14285714285714285
asI202974
(lp38
F0.09523809523809523
aF0.09523809523809523
aF0.09523809523809523
aF0.09523809523809523
aF0.09523809523809523
aF0.09523809523809523
asI206203
(lp39
F0.25
asI202985
(lp40
F0.6666666666666666
asI207084
(lp41
F0.3333333333333333
aF0.3333333333333333
asI207087
(lp42
F0.0625
aF0.0625
asI202999
(lp43
F0.6666666666666666
asI200952
(lp44
F0.4
asI205050
(lp45
F0.01048951048951049
aF0.006993006993006993
aF0.006993006993006993
aF0.013986013986013986
aF0.006993006993006993
aF0.006993006993006993
aF0.006993006993006993
aF0.006993006993006993
aF0.006993006993006993
aF0.006993006993006993
aF0.006993006993006993
aF0.006993006993006993
aF0.006993006993006993
aF0.006993006993006993
aF0.006993006993006993
aF0.006993006993006993
aF0.01048951048951049
aF0.006993006993006993
aF0.006993006993006993
asI207105
(lp46
F0.05714285714285714
asI205058
(lp47
F0.0967741935483871
asI205867
(lp48
F1.0
asI203013
(lp49
F0.03225806451612903
aF0.03225806451612903
aF0.03225806451612903
asI207116
(lp50
F0.05263157894736842
asI205072
(lp51
F0.10526315789473684
asI205079
(lp52
F0.15384615384615385
asI213273
(lp53
F0.05172413793103448
asI205084
(lp54
F0.12
asI203045
(lp55
F0.01818181818181818
aF0.01818181818181818
aF0.01818181818181818
aF0.01818181818181818
aF0.01818181818181818
aF0.01818181818181818
asI207142
(lp56
F0.2222222222222222
asI205101
(lp57
F0.14285714285714285
asI205107
(lp58
F0.11764705882352941
asI207160
(lp59
F0.2
aF0.2
aF0.2
aF0.2
asI206900
(lp60
F0.12195121951219512
aF0.04878048780487805
asI203077
(lp61
F0.05405405405405406
aF0.05405405405405406
asI205131
(lp62
F0.15384615384615385
asI205135
(lp63
F0.05714285714285714
aF0.05714285714285714
asI203091
(lp64
F0.02702702702702703
asI203093
(lp65
F0.4
asI201049
(lp66
F0.1794871794871795
aF0.05128205128205128
aF0.05128205128205128
asI201068
(lp67
F0.19047619047619047
asI201075
(lp68
F0.4
asI201084
(lp69
F0.2222222222222222
aF0.2222222222222222
aF0.2222222222222222
asI201086
(lp70
F0.16666666666666666
asI203135
(lp71
F0.02127659574468085
aF0.0425531914893617
aF0.02127659574468085
aF0.02127659574468085
aF0.02127659574468085
asI203136
(lp72
F0.011049723756906077
aF0.03867403314917127
aF0.011049723756906077
aF0.011049723756906077
aF0.011049723756906077
asI203144
(lp73
F0.08333333333333333
aF0.19444444444444445
asI205202
(lp74
F0.06666666666666667
aF0.02666666666666667
aF0.02666666666666667
asI207252
(lp75
F1.0
asI203162
(lp76
F0.4
aF0.4
asI205222
(lp77
F0.047619047619047616
aF0.047619047619047616
aF0.047619047619047616
asI207274
(lp78
F0.06
asI207275
(lp79
F0.5
asI205228
(lp80
F0.09523809523809523
asI213431
(lp81
F1.0
asI201148
(lp82
F0.2
asI207293
(lp83
F0.2222222222222222
asI205250
(lp84
F0.07142857142857142
aF0.07142857142857142
asI207309
(lp85
F0.16666666666666666
aF0.1111111111111111
asI209365
(lp86
F0.058823529411764705
asI205271
(lp87
F0.2222222222222222
asI207325
(lp88
F0.10526315789473684
aF0.10526315789473684
asI207326
(lp89
F0.05263157894736842
asI213755
(lp90
F0.14285714285714285
asI205290
(lp91
F0.031746031746031744
asI205296
(lp92
F0.06060606060606061
asI205300
(lp93
F0.023529411764705882
aF0.023529411764705882
aF0.023529411764705882
aF0.047058823529411764
aF0.023529411764705882
asI203255
(lp94
F0.1
aF0.1
aF0.35
aF0.1
aF0.1
asI203257
(lp95
F0.043478260869565216
aF0.043478260869565216
asI203259
(lp96
F0.5
asI209407
(lp97
F0.2857142857142857
aF0.2857142857142857
asI207361
(lp98
F0.2222222222222222
asI203268
(lp99
F0.14285714285714285
asI201221
(lp100
F0.3
asI201223
(lp101
F0.3333333333333333
aF0.3333333333333333
aF0.3333333333333333
aF0.3333333333333333
asI203284
(lp102
F0.18181818181818182
asI201242
(lp103
F0.09523809523809523
aF0.09523809523809523
asI207387
(lp104
F0.06451612903225806
aF0.06451612903225806
aF0.06451612903225806
aF0.0967741935483871
asI203293
(lp105
F0.4
asI201252
(lp106
F0.2
asI205368
(lp107
F0.18181818181818182
asI212063
(lp108
F1.0
asI201281
(lp109
F0.020833333333333332
aF0.020833333333333332
aF0.020833333333333332
aF0.020833333333333332
aF0.020833333333333332
asI213581
(lp110
F0.1
asI205393
(lp111
F0.06896551724137931
asI207630
(lp112
F0.018518518518518517
aF0.018518518518518517
aF0.018518518518518517
aF0.018518518518518517
asI205399
(lp113
F0.05263157894736842
aF0.05263157894736842
asI203352
(lp114
F0.08333333333333333
asI207449
(lp115
F0.08333333333333333
asI203355
(lp116
F0.25
aF0.25
aF0.375
asI207452
(lp117
F1.0
asI203360
(lp118
F0.01834862385321101
aF0.01834862385321101
aF0.01834862385321101
asI207458
(lp119
F0.04
asI205414
(lp120
F0.2857142857142857
aF0.2857142857142857
asI207463
(lp121
F0.14285714285714285
asI203369
(lp122
F0.1111111111111111
asI205418
(lp123
F0.23529411764705882
asI207472
(lp124
F0.02040816326530612
aF0.02040816326530612
aF0.02040816326530612
asI207813
(lp125
F0.07142857142857142
aF0.07142857142857142
asI200127
(lp126
F0.5
asI207488
(lp127
F0.017699115044247787
aF0.017699115044247787
aF0.017699115044247787
aF0.017699115044247787
aF0.02654867256637168
asI200128
(lp128
F0.4
asI211594
(lp129
F1.0
asI209552
(lp130
F0.6666666666666666
asI207515
(lp131
F0.14285714285714285
asI203421
(lp132
F0.046511627906976744
aF0.046511627906976744
asI201377
(lp133
F0.5
asI201382
(lp134
F0.13333333333333333
aF0.13333333333333333
asI214129
(lp135
F0.0392156862745098
asI201392
(lp136
F0.25
asI205496
(lp137
F0.07692307692307693
asI205941
(lp138
F1.0
asI203459
(lp139
F0.11363636363636363
asI203460
(lp140
F0.18181818181818182
asI205510
(lp141
F0.16666666666666666
asI203470
(lp142
F0.11764705882352941
asI203471
(lp143
F0.16666666666666666
asI207573
(lp144
F0.03125
aF0.03125
aF0.03125
aF0.03125
aF0.03125
aF0.03125
aF0.03125
aF0.03125
asI203480
(lp145
F0.15384615384615385
asI203481
(lp146
F0.18181818181818182
asI205530
(lp147
F0.041666666666666664
aF0.041666666666666664
asI207581
(lp148
F1.0
asI203488
(lp149
F0.2222222222222222
asI206971
(lp150
F0.08
asI205540
(lp151
F0.5
asI205543
(lp152
F0.125
asI201449
(lp153
F0.6666666666666666
asI201452
(lp154
F0.16666666666666666
asI205555
(lp155
F1.0
aF1.0
asI207607
(lp156
F0.6666666666666666
aF0.6666666666666666
asI203514
(lp157
F1.0
aF1.0
aF1.0
asI203515
(lp158
F1.0
aF1.0
aF1.0
aF1.0
asI207615
(lp159
F0.03636363636363636
asI205568
(lp160
F0.18181818181818182
aF0.18181818181818182
asI205569
(lp161
F0.06060606060606061
asI203525
(lp162
F0.1
aF0.1
aF0.1
aF0.1
asI207623
(lp163
F0.1
asI211724
(lp164
F0.2727272727272727
asI201486
(lp165
F0.014285714285714285
aF0.014285714285714285
aF0.014285714285714285
aF0.014285714285714285
aF0.014285714285714285
aF0.014285714285714285
aF0.014285714285714285
aF0.014285714285714285
aF0.014285714285714285
aF0.014285714285714285
aF0.014285714285714285
asI203541
(lp166
F0.06451612903225806
asI203542
(lp167
F1.0
asI211735
(lp168
F0.044444444444444446
aF0.044444444444444446
aF0.044444444444444446
asI209690
(lp169
F0.25
asI207651
(lp170
F0.05555555555555555
aF0.05555555555555555
asI203557
(lp171
F0.023255813953488372
aF0.046511627906976744
aF0.023255813953488372
aF0.023255813953488372
aF0.023255813953488372
asI205613
(lp172
F0.4
asI203570
(lp173
F0.2857142857142857
asI201526
(lp174
F0.24
asI207673
(lp175
F0.03125
aF0.09375
asI205632
(lp176
F0.125
asI203586
(lp177
F0.028169014084507043
asI200162
(lp178
F1.0
asI209742
(lp179
F0.02702702702702703
aF0.02702702702702703
aF0.02702702702702703
asI205657
(lp180
F0.2222222222222222
asI201562
(lp181
F0.3333333333333333
asI207713
(lp182
F0.018518518518518517
aF0.018518518518518517
asI203628
(lp183
F0.18181818181818182
asI205679
(lp184
F0.023809523809523808
aF0.023809523809523808
asI208021
(lp185
F0.375
asI201601
(lp186
F0.08695652173913043
aF0.08695652173913043
asI205698
(lp187
F0.058823529411764705
aF0.058823529411764705
aF0.058823529411764705
aF0.058823529411764705
asI205702
(lp188
F0.02040816326530612
aF0.02040816326530612
aF0.02040816326530612
aF0.02040816326530612
aF0.02040816326530612
aF0.02040816326530612
aF0.030612244897959183
aF0.02040816326530612
asI207753
(lp189
F0.6666666666666666
asI201613
(lp190
F0.3333333333333333
asI205712
(lp191
F0.2857142857142857
asI205716
(lp192
F0.08695652173913043
asI207769
(lp193
F0.05714285714285714
aF0.05714285714285714
asI213919
(lp194
F0.018691588785046728
aF0.018691588785046728
aF0.018691588785046728
aF0.018691588785046728
aF0.018691588785046728
aF0.018691588785046728
asI200185
(lp195
F0.06
asI201637
(lp196
F1.0
asI208369
(lp197
F1.0
aF1.0
asI207784
(lp198
F0.18181818181818182
asI201647
(lp199
F0.07142857142857142
aF0.047619047619047616
asI203697
(lp200
F0.058823529411764705
asI203705
(lp201
F0.07142857142857142
asI207803
(lp202
F0.0625
asI207805
(lp203
F0.6666666666666666
asI203717
(lp204
F0.044444444444444446
aF0.044444444444444446
aF0.044444444444444446
aF0.044444444444444446
aF0.044444444444444446
asI205768
(lp205
F0.043478260869565216
aF0.06521739130434782
asI213966
(lp206
F0.2857142857142857
asI203728
(lp207
F0.02857142857142857
aF0.02857142857142857
aF0.02857142857142857
aF0.02857142857142857
asI203735
(lp208
F0.01486988847583643
aF0.007434944237918215
aF0.007434944237918215
aF0.007434944237918215
aF0.007434944237918215
aF0.007434944237918215
aF0.007434944237918215
aF0.007434944237918215
aF0.007434944237918215
aF0.007434944237918215
aF0.007434944237918215
asI201699
(lp209
F0.13636363636363635
asI205796
(lp210
F0.14285714285714285
aF0.09523809523809523
asI209898
(lp211
F0.6666666666666666
asI203768
(lp212
F0.024691358024691357
aF0.024691358024691357
aF0.024691358024691357
aF0.024691358024691357
aF0.024691358024691357
asI211963
(lp213
F0.125
asI201730
(lp214
F0.3333333333333333
aF0.3333333333333333
aF0.3333333333333333
asI207881
(lp215
F0.07692307692307693
asI203053
(lp216
F0.011299435028248588
aF0.011299435028248588
aF0.011299435028248588
aF0.011299435028248588
aF0.011299435028248588
aF0.011299435028248588
asI207897
(lp217
F0.14285714285714285
asI203610
(lp218
F0.01639344262295082
aF0.01092896174863388
aF0.01092896174863388
aF0.01092896174863388
aF0.01092896174863388
aF0.01639344262295082
aF0.01092896174863388
aF0.01092896174863388
aF0.01092896174863388
aF0.01092896174863388
aF0.01639344262295082
aF0.01092896174863388
asI203807
(lp219
F0.14285714285714285
aF0.14285714285714285
asI211237
(lp220
F0.5
asI205864
(lp221
F0.07692307692307693
aF0.07692307692307693
asI205865
(lp222
F0.028985507246376812
asI203271
(lp223
F0.6666666666666666
asI203829
(lp224
F0.18181818181818182
aF0.18181818181818182
aF0.18181818181818182
asI207927
(lp225
F0.01834862385321101
asI207932
(lp226
F0.044444444444444446
asI205887
(lp227
F0.1111111111111111
asI207944
(lp228
F0.05555555555555555
asI203853
(lp229
F0.3333333333333333
asI207959
(lp230
F0.3333333333333333
asI201821
(lp231
F0.11764705882352941
asI201822
(lp232
F0.17647058823529413
asI207967
(lp233
F0.031746031746031744
asI201828
(lp234
F0.125
asI203884
(lp235
F1.0
asI201841
(lp236
F0.6666666666666666
asI201845
(lp237
F0.08
aF0.08
asI207992
(lp238
F1.0
asI201849
(lp239
F0.09090909090909091
aF0.13636363636363635
aF0.09090909090909091
asI201850
(lp240
F0.027777777777777776
aF0.027777777777777776
asI203901
(lp241
F0.10526315789473684
asI203904
(lp242
F0.03278688524590164
asI201857
(lp243
F0.02
aF0.02
aF0.02
aF0.02
aF0.02
aF0.02
asI201859
(lp244
F0.2222222222222222
asI214148
(lp245
F0.6666666666666666
asI207724
(lp246
F0.25
aF0.25
asI208262
(lp247
F1.0
asI203920
(lp248
F0.23529411764705882
asI201877
(lp249
F0.18181818181818182
asI205976
(lp250
F0.3333333333333333
asI207044
(lp251
F0.25
asI208031
(lp252
F1.0
asI201891
(lp253
F0.6666666666666666
asI203941
(lp254
F0.06451612903225806
asI201895
(lp255
F0.5
asI205993
(lp256
F0.014285714285714285
aF0.014285714285714285
aF0.02857142857142857
aF0.014285714285714285
aF0.014285714285714285
aF0.014285714285714285
aF0.014285714285714285
asI212139
(lp257
F0.4
asI205997
(lp258
F0.35294117647058826
asI201907
(lp259
F0.017699115044247787
aF0.035398230088495575
aF0.017699115044247787
aF0.017699115044247787
aF0.017699115044247787
aF0.017699115044247787
asI206006
(lp260
F0.05128205128205128
asI206013
(lp261
F0.0625
asI203973
(lp262
F0.13333333333333333
asI201929
(lp263
F0.03636363636363636
asI202615
(lp264
F0.010309278350515464
aF0.010309278350515464
aF0.010309278350515464
aF0.010309278350515464
aF0.010309278350515464
aF0.020618556701030927
aF0.010309278350515464
aF0.010309278350515464
aF0.010309278350515464
aF0.010309278350515464
aF0.010309278350515464
aF0.010309278350515464
aF0.010309278350515464
aF0.010309278350515464
asI206040
(lp265
F0.09090909090909091
asI201951
(lp266
F0.024390243902439025
aF0.024390243902439025
aF0.024390243902439025
aF0.024390243902439025
asI204000
(lp267
F0.3
asI208099
(lp268
F0.04878048780487805
aF0.04878048780487805
asI206054
(lp269
F0.14285714285714285
aF0.14285714285714285
aF0.14285714285714285
asI206055
(lp270
F0.04
aF0.04
asI208107
(lp271
F0.25
asI206060
(lp272
F0.3333333333333333
aF0.13333333333333333
aF0.13333333333333333
aF0.13333333333333333
asI206061
(lp273
F0.2857142857142857
asI201967
(lp274
F0.2222222222222222
aF0.2222222222222222
asI201984
(lp275
F0.08
asI201987
(lp276
F0.11764705882352941
aF0.11764705882352941
asI204042
(lp277
F0.6666666666666666
asI201995
(lp278
F0.11764705882352941
asI214284
(lp279
F0.2857142857142857
asI206098
(lp280
F0.16666666666666666
asI202004
(lp281
F0.14285714285714285
aF0.14285714285714285
asI208159
(lp282
F0.06451612903225806
aF0.06451612903225806
aF0.06451612903225806
asI202017
(lp283
F0.058823529411764705
aF0.058823529411764705
asI202019
(lp284
F0.25
asI206135
(lp285
F0.08
asI204090
(lp286
F0.06451612903225806
aF0.012903225806451613
aF0.012903225806451613
aF0.012903225806451613
aF0.012903225806451613
asI204104
(lp287
F0.18181818181818182
aF0.18181818181818182
aF0.18181818181818182
asI202061
(lp288
F1.0
asI204112
(lp289
F0.008264462809917356
aF0.008264462809917356
aF0.008264462809917356
aF0.008264462809917356
aF0.008264462809917356
aF0.008264462809917356
aF0.008264462809917356
aF0.008264462809917356
aF0.012396694214876033
aF0.008264462809917356
aF0.008264462809917356
asI206166
(lp290
F0.08
asI200036
(lp291
F0.6666666666666666
asI206184
(lp292
F0.016260162601626018
aF0.016260162601626018
aF0.024390243902439025
asI202090
(lp293
F0.05555555555555555
aF0.05555555555555555
asI200044
(lp294
F0.3333333333333333
asI202098
(lp295
F0.1111111111111111
asI200051
(lp296
F0.14285714285714285
aF0.09523809523809523
asI206199
(lp297
F0.23076923076923078
asI210297
(lp298
F0.1111111111111111
asI200059
(lp299
F0.005221932114882507
aF0.005221932114882507
aF0.005221932114882507
aF0.005221932114882507
aF0.005221932114882507
aF0.007832898172323759
aF0.005221932114882507
aF0.005221932114882507
aF0.005221932114882507
aF0.005221932114882507
aF0.005221932114882507
aF0.005221932114882507
aF0.007832898172323759
aF0.005221932114882507
aF0.005221932114882507
asI202110
(lp300
F0.05714285714285714
asI202111
(lp301
F0.009708737864077669
aF0.009708737864077669
aF0.009708737864077669
aF0.009708737864077669
aF0.009708737864077669
aF0.009708737864077669
aF0.009708737864077669
asI206211
(lp302
F0.5
asI202116
(lp303
F0.3333333333333333
asI202118
(lp304
F0.02702702702702703
asI206219
(lp305
F0.06060606060606061
asI202124
(lp306
F0.18181818181818182
asI204173
(lp307
F1.0
asI212367
(lp308
F0.6666666666666666
asI200082
(lp309
F1.0
asI211865
(lp310
F0.04878048780487805
aF0.04878048780487805
asI202138
(lp311
F0.2222222222222222
asI204189
(lp312
F1.0
aF1.0
asI206246
(lp313
F0.09090909090909091
asI210343
(lp314
F0.023529411764705882
aF0.058823529411764705
aF0.023529411764705882
asI200118
(lp315
F0.125
asI202169
(lp316
F0.03571428571428571
aF0.03571428571428571
asI200124
(lp317
F0.0072992700729927005
aF0.0072992700729927005
aF0.0072992700729927005
aF0.0072992700729927005
aF0.0072992700729927005
aF0.010948905109489052
aF0.0072992700729927005
aF0.0072992700729927005
aF0.010948905109489052
aF0.0072992700729927005
aF0.0072992700729927005
asI202173
(lp318
F0.6666666666666666
asI204223
(lp319
F0.14285714285714285
asI202176
(lp320
F0.375
asI202178
(lp321
F0.14285714285714285
aF0.07142857142857142
asI206277
(lp322
F0.10526315789473684
asI206280
(lp323
F0.15384615384615385
asI200139
(lp324
F0.16666666666666666
asI200147
(lp325
F0.08695652173913043
asI200148
(lp326
F1.0
asI214485
(lp327
F0.6666666666666666
asI206297
(lp328
F0.03636363636363636
aF0.03636363636363636
asI202202
(lp329
F1.0
asI206306
(lp330
F1.0
asI200166
(lp331
F0.14285714285714285
asI205319
(lp332
F0.14285714285714285
aF0.10714285714285714
asI203819
(lp333
F0.047619047619047616
asI212469
(lp334
F0.6666666666666666
aF0.6666666666666666
asI204281
(lp335
F0.014492753623188406
aF0.014492753623188406
aF0.021739130434782608
aF0.014492753623188406
aF0.014492753623188406
aF0.014492753623188406
aF0.014492753623188406
aF0.014492753623188406
asI206332
(lp336
F0.038461538461538464
asI202239
(lp337
F0.08333333333333333
aF0.05555555555555555
asI204291
(lp338
F0.16666666666666666
asI202251
(lp339
F0.13333333333333333
aF0.13333333333333333
aF0.13333333333333333
asI200207
(lp340
F0.11764705882352941
asI202260
(lp341
F0.06666666666666667
asI202262
(lp342
F0.14285714285714285
asI212505
(lp343
F0.1111111111111111
asI203695
(lp344
F0.4
asI205061
(lp345
F0.2222222222222222
asI200226
(lp346
F0.16666666666666666
asI204324
(lp347
F0.03508771929824561
aF0.12280701754385964
aF0.03508771929824561
aF0.03508771929824561
asI204328
(lp348
F0.014285714285714285
aF0.02142857142857143
aF0.02142857142857143
aF0.014285714285714285
asI200233
(lp349
F0.058823529411764705
asI212534
(lp350
F0.07142857142857142
asI208442
(lp351
F0.2857142857142857
asI202310
(lp352
F1.0
aF1.0
asI210507
(lp353
F0.06060606060606061
asI208461
(lp354
F0.5
asI208465
(lp355
F0.15384615384615385
aF0.15384615384615385
asI206420
(lp356
F0.25
aF0.16666666666666666
asI206421
(lp357
F0.014652014652014652
aF0.007326007326007326
aF0.007326007326007326
aF0.01098901098901099
aF0.01098901098901099
aF0.007326007326007326
aF0.01098901098901099
aF0.007326007326007326
aF0.007326007326007326
aF0.007326007326007326
aF0.007326007326007326
aF0.007326007326007326
aF0.007326007326007326
aF0.007326007326007326
asI206423
(lp358
F0.16666666666666666
asI204377
(lp359
F0.5
asI202341
(lp360
F0.07692307692307693
aF0.05128205128205128
aF0.05128205128205128
asI206440
(lp361
F0.14285714285714285
asI204395
(lp362
F0.07692307692307693
aF0.15384615384615385
asI204398
(lp363
F0.3333333333333333
asI212591
(lp364
F0.06896551724137931
asI202357
(lp365
F0.04081632653061224
aF0.04081632653061224
aF0.04081632653061224
asI202358
(lp366
F0.15384615384615385
asI200316
(lp367
F0.0625
asI202366
(lp368
F0.15384615384615385
asI202369
(lp369
F1.0
asI206466
(lp370
F0.023529411764705882
aF0.03529411764705882
aF0.023529411764705882
aF0.023529411764705882
asI206443
(lp371
F1.0
aF1.0
asI202375
(lp372
F0.25
asI207127
(lp373
F1.0
aF1.0
asI200335
(lp374
F0.14285714285714285
asI204434
(lp375
F0.1111111111111111
aF0.1111111111111111
asI200339
(lp376
F0.6666666666666666
asI201669
(lp377
F0.1
asI202401
(lp378
F0.04878048780487805
aF0.04878048780487805
asI200357
(lp379
F0.08695652173913043
asI200360
(lp380
F0.08333333333333333
aF0.125
aF0.08333333333333333
asI200363
(lp381
F0.05555555555555555
aF0.05555555555555555
aF0.08333333333333333
asI202415
(lp382
F0.18181818181818182
asI204464
(lp383
F1.0
asI203720
(lp384
F0.02666666666666667
asI206515
(lp385
F0.03571428571428571
aF0.03571428571428571
aF0.03571428571428571
asI204474
(lp386
F0.1111111111111111
asI206524
(lp387
F0.02631578947368421
asI208576
(lp388
F1.0
asI204406
(lp389
F0.05263157894736842
asI206534
(lp390
F0.07142857142857142
aF0.07142857142857142
aF0.10714285714285714
asI206545
(lp391
F0.021739130434782608
asI206552
(lp392
F0.13333333333333333
asI200410
(lp393
F1.0
asI200415
(lp394
F0.011299435028248588
aF0.011299435028248588
aF0.011299435028248588
aF0.011299435028248588
aF0.011299435028248588
aF0.011299435028248588
aF0.011299435028248588
aF0.011299435028248588
asI210658
(lp395
F0.2857142857142857
aF0.2857142857142857
aF0.2857142857142857
asI206568
(lp396
F0.08333333333333333
aF0.08333333333333333
asI204526
(lp397
F0.07142857142857142
aF0.07142857142857142
asI200441
(lp398
F0.03389830508474576
asI206594
(lp399
F0.25
asI204549
(lp400
F0.4
aF0.4
asI200456
(lp401
F0.17857142857142858
aF0.07142857142857142
aF0.07142857142857142
aF0.07142857142857142
asI206829
(lp402
F0.014084507042253521
aF0.014084507042253521
aF0.014084507042253521
asI206604
(lp403
F0.06060606060606061
asI204559
(lp404
F0.042105263157894736
aF0.021052631578947368
asI206614
(lp405
F0.4
aF0.4
aF0.4
asI200479
(lp406
F0.21428571428571427
asI204578
(lp407
F0.018518518518518517
aF0.027777777777777776
aF0.018518518518518517
asI206630
(lp408
F0.04918032786885246
aF0.03278688524590164
asI202535
(lp409
F0.016129032258064516
aF0.016129032258064516
aF0.016129032258064516
asI204423
(lp410
F0.2857142857142857
asI202540
(lp411
F0.06451612903225806
asI202542
(lp412
F0.07894736842105263
aF0.05263157894736842
asI206639
(lp413
F0.06060606060606061
asI206642
(lp414
F0.024096385542168676
asI207155
(lp415
F0.06666666666666667
asI200503
(lp416
F0.08571428571428572
aF0.05714285714285714
aF0.05714285714285714
aF0.05714285714285714
asI206648
(lp417
F0.018867924528301886
aF0.018867924528301886
asI206678
(lp418
F0.09090909090909091
asI204633
(lp419
F0.4
asI204642
(lp420
F0.4
asI204645
(lp421
F0.014925373134328358
aF0.014925373134328358
aF0.014925373134328358
asI204663
(lp422
F0.3181818181818182
aF0.09090909090909091
asI206714
(lp423
F0.02531645569620253
asI200571
(lp424
F0.2
asI200574
(lp425
F0.11764705882352941
asI202624
(lp426
F0.04878048780487805
aF0.04878048780487805
asI204678
(lp427
F0.16666666666666666
asI204683
(lp428
F0.08333333333333333
aF0.05555555555555555
asI202637
(lp429
F0.04878048780487805
aF0.07317073170731707
aF0.04878048780487805
aF0.0975609756097561
asI202733
(lp430
F0.0273972602739726
asI214928
(lp431
F0.125
asI202648
(lp432
F0.021052631578947368
aF0.021052631578947368
aF0.021052631578947368
aF0.021052631578947368
asI204697
(lp433
F1.0
asI206747
(lp434
F0.0625
asI202662
(lp435
F0.1111111111111111
aF0.037037037037037035
aF0.037037037037037035
asI200617
(lp436
F0.07407407407407407
aF0.07407407407407407
aF0.07407407407407407
aF0.07407407407407407
asI212908
(lp437
F0.05405405405405406
asI202669
(lp438
F0.04081632653061224
asI207994
(lp439
F0.13333333333333333
asI204727
(lp440
F0.2222222222222222
asI206776
(lp441
F0.11764705882352941
asI200636
(lp442
F0.02631578947368421
aF0.017543859649122806
aF0.017543859649122806
aF0.017543859649122806
asI200639
(lp443
F0.05405405405405406
asI202690
(lp444
F0.4
asI202694
(lp445
F0.09090909090909091
aF0.09090909090909091
asI202695
(lp446
F0.4166666666666667
aF0.16666666666666666
asI200655
(lp447
F0.028985507246376812
aF0.028985507246376812
aF0.043478260869565216
asI202704
(lp448
F0.10526315789473684
asI200666
(lp449
F0.07954545454545454
aF0.022727272727272728
aF0.022727272727272728
aF0.022727272727272728
asI214693
(lp450
F0.18181818181818182
asI212304
(lp451
F0.5
aF0.5
asI202722
(lp452
F0.031578947368421054
aF0.021052631578947368
asI202726
(lp453
F0.017241379310344827
aF0.017241379310344827
aF0.017241379310344827
aF0.017241379310344827
aF0.017241379310344827
asI202730
(lp454
F0.058823529411764705
asI202732
(lp455
F0.0196078431372549
aF0.0196078431372549
aF0.0196078431372549
aF0.0196078431372549
aF0.029411764705882353
aF0.0196078431372549
aF0.0196078431372549
aF0.0196078431372549
asI204781
(lp456
F0.15384615384615385
aF0.15384615384615385
aF0.15384615384615385
aF0.15384615384615385
asI205139
(lp457
F0.13333333333333333
aF0.13333333333333333
asI212982
(lp458
F0.034482758620689655
asI205473
(lp459
F0.6666666666666666
as.