(dp0
I129025
(lp1
F0.6666666666666666
aF0.6666666666666666
asI118789
(lp2
F1.0
aF1.0
asI100358
(lp3
F0.2222222222222222
aF0.2222222222222222
aF0.3333333333333333
asI114689
(lp4
F1.0
asI102408
(lp5
F1.0
asI104457
(lp6
F0.4
aF0.4
asI100364
(lp7
F0.15
aF0.1
aF0.1
aF0.15
aF0.15
aF0.15
asI112654
(lp8
F1.0
asI100371
(lp9
F0.6666666666666666
aF0.6666666666666666
aF0.6666666666666666
asI135198
(lp10
F1.0
asI102431
(lp11
F1.0
aF1.0
aF1.0
asI114723
(lp12
F0.4
asI116773
(lp13
F0.75
aF0.75
asI129064
(lp14
F1.0
asI100393
(lp15
F0.6666666666666666
asI114730
(lp16
F0.6666666666666666
aF0.6666666666666666
aF0.6666666666666666
asI131116
(lp17
F1.0
aF1.0
aF1.0
asI122929
(lp18
F1.0
asI131122
(lp19
F1.0
asI127027
(lp20
F1.0
asI110648
(lp21
F0.25
asI118846
(lp22
F0.75
asI129090
(lp23
F1.0
asI108614
(lp24
F0.6666666666666666
asI100023
(lp25
F1.0
asI106579
(lp26
F1.0
asI106580
(lp27
F0.6666666666666666
asI110679
(lp28
F1.0
asI102489
(lp29
F1.0
aF1.0
aF1.0
aF1.0
aF1.0
aF1.0
asI133212
(lp30
F0.6666666666666666
asI127069
(lp31
F1.0
asI122976
(lp32
F0.6666666666666666
asI108642
(lp33
F1.0
asI108644
(lp34
F1.0
asI131175
(lp35
F0.6666666666666666
aF0.6666666666666666
asI120936
(lp36
F1.0
asI103100
(lp37
F0.5
asI108540
(lp38
F0.6666666666666666
aF0.6666666666666666
asI120942
(lp39
F1.0
asI106515
(lp40
F0.3333333333333333
aF0.5
aF0.3333333333333333
asI131191
(lp41
F1.0
asI100478
(lp42
F1.0
asI131203
(lp43
F1.0
asI129159
(lp44
F1.0
asI127122
(lp45
F0.6666666666666666
asI110739
(lp46
F0.6666666666666666
aF0.6666666666666666
asI104597
(lp47
F0.5
aF0.5
aF0.5
aF0.5
aF0.5
asI131223
(lp48
F1.0
asI102553
(lp49
F1.0
aF1.0
aF1.0
aF1.0
aF1.0
asI104602
(lp50
F0.75
asI100507
(lp51
F0.6666666666666666
asI125084
(lp52
F1.0
asI133282
(lp53
F1.0
aF1.0
aF1.0
asI120997
(lp54
F0.6666666666666666
aF0.6666666666666666
aF0.6666666666666666
asI127143
(lp55
F1.0
asI104622
(lp56
F0.8333333333333334
asI131251
(lp57
F0.5
asI131253
(lp58
F0.4
aF0.4
asI108726
(lp59
F0.6666666666666666
asI100536
(lp60
F1.0
asI116922
(lp61
F0.3333333333333333
aF0.3333333333333333
aF0.3333333333333333
asI123069
(lp62
F0.5
asI116939
(lp63
F0.5
aF0.5
asI104652
(lp64
F0.2
aF0.3
aF0.2
aF0.2
asI112845
(lp65
F0.6666666666666666
asI104659
(lp66
F0.6666666666666666
aF0.6666666666666666
asI135385
(lp67
F0.5
asI131293
(lp68
F0.3333333333333333
asI119007
(lp69
F0.75
asI106725
(lp70
F1.0
asI114920
(lp71
F0.4
aF0.4
asI133357
(lp72
F1.0
asI110833
(lp73
F1.0
aF1.0
asI123126
(lp74
F1.0
asI108795
(lp75
F0.6666666666666666
asI108796
(lp76
F1.0
asI112898
(lp77
F1.0
asI104708
(lp78
F1.0
asI121093
(lp79
F1.0
asI123142
(lp80
F1.0
asI117000
(lp81
F0.6
asI104713
(lp82
F1.0
asI133388
(lp83
F1.0
asI102672
(lp84
F1.0
asI121108
(lp85
F0.3333333333333333
asI133402
(lp86
F0.6666666666666666
asI102683
(lp87
F0.6666666666666666
asI133404
(lp88
F0.6666666666666666
asI102685
(lp89
F0.7142857142857143
aF0.2857142857142857
aF0.2857142857142857
asI106783
(lp90
F0.2
aF0.7
aF0.2
aF0.2
aF0.3
aF0.2
asI108833
(lp91
F0.3333333333333333
aF0.3333333333333333
aF0.3333333333333333
aF0.3333333333333333
aF0.3333333333333333
aF0.3333333333333333
aF0.5
asI107227
(lp92
F1.0
asI133852
(lp93
F1.0
asI129328
(lp94
F1.0
asI108849
(lp95
F0.6666666666666666
asI129330
(lp96
F0.6666666666666666
aF0.6666666666666666
aF0.6666666666666666
asI108851
(lp97
F0.6666666666666666
asI108859
(lp98
F1.0
asI131392
(lp99
F1.0
asI131395
(lp100
F1.0
asI106820
(lp101
F0.2857142857142857
asI114784
(lp102
F0.5
asI100688
(lp103
F0.6
aF0.2
aF0.3
aF0.2
aF0.3
asI102738
(lp104
F0.6666666666666666
asI100693
(lp105
F1.0
asI108892
(lp106
F1.0
aF1.0
aF1.0
aF1.0
aF1.0
aF1.0
asI121183
(lp107
F0.5
asI108897
(lp108
F1.0
asI112398
(lp109
F1.0
asI123236
(lp110
F1.0
asI131435
(lp111
F0.3333333333333333
aF0.3333333333333333
aF0.3333333333333333
aF0.5
aF0.5
asI110957
(lp112
F0.5
aF1.0
aF0.75
aF0.75
aF0.5
aF0.5
aF0.5
aF0.5
asI102769
(lp113
F0.6666666666666666
asI106868
(lp114
F0.4
asI119157
(lp115
F1.0
asI133499
(lp116
F1.0
asI108928
(lp117
F1.0
asI100740
(lp118
F0.5384615384615384
aF0.15384615384615385
aF0.15384615384615385
aF0.15384615384615385
aF0.38461538461538464
aF0.15384615384615385
asI100749
(lp119
F1.0
asI116461
(lp120
F0.6666666666666666
aF0.6666666666666666
asI113045
(lp121
F1.0
asI102806
(lp122
F1.0
asI131485
(lp123
F0.4
asI100774
(lp124
F1.0
aF1.0
asI129447
(lp125
F0.3333333333333333
asI100776
(lp126
F1.0
aF1.0
asI102825
(lp127
F0.5
asI127404
(lp128
F1.0
asI113074
(lp129
F0.5
aF0.5
asI119219
(lp130
F0.6666666666666666
aF0.6666666666666666
aF0.6666666666666666
asI113078
(lp131
F1.0
asI129466
(lp132
F0.6666666666666666
asI129468
(lp133
F1.0
asI100799
(lp134
F0.1
aF0.5
aF0.1
aF0.1
aF0.25
asI111043
(lp135
F1.0
asI106949
(lp136
F0.5
aF1.0
asI131528
(lp137
F0.6666666666666666
asI131769
(lp138
F0.5
asI102858
(lp139
F1.0
asI100812
(lp140
F0.5
asI132173
(lp141
F1.0
aF1.0
asI102866
(lp142
F1.0
asI113113
(lp143
F1.0
asI131551
(lp144
F1.0
aF1.0
asI134566
(lp145
F1.0
asI115174
(lp146
F0.6363636363636364
asI127463
(lp147
F0.6666666666666666
asI100775
(lp148
F1.0
aF1.0
asI117229
(lp149
F1.0
asI117230
(lp150
F1.0
asI115186
(lp151
F0.6666666666666666
asI104948
(lp152
F0.14285714285714285
aF0.14285714285714285
aF0.14285714285714285
aF0.14285714285714285
aF0.21428571428571427
aF0.14285714285714285
aF0.14285714285714285
aF0.14285714285714285
aF0.14285714285714285
asI104949
(lp153
F0.5
asI111094
(lp154
F1.0
aF1.0
asI117241
(lp155
F1.0
asI123392
(lp156
F1.0
asI107012
(lp157
F1.0
aF1.0
asI119305
(lp158
F1.0
asI111114
(lp159
F1.0
asI119307
(lp160
F1.0
asI121362
(lp161
F0.8
asI109075
(lp162
F1.0
asI109076
(lp163
F1.0
asI104985
(lp164
F0.36363636363636365
aF0.2727272727272727
aF0.18181818181818182
aF0.18181818181818182
aF0.18181818181818182
asI104986
(lp165
F0.5
aF0.5
asI117275
(lp166
F0.6666666666666666
aF0.6666666666666666
aF0.6666666666666666
aF0.6666666666666666
asI107036
(lp167
F1.0
asI117279
(lp168
F1.0
asI119329
(lp169
F1.0
asI131621
(lp170
F0.6666666666666666
asI102951
(lp171
F1.0
aF1.0
aF1.0
asI102952
(lp172
F1.0
aF1.0
aF1.0
asI135722
(lp173
F1.0
asI111147
(lp174
F1.0
asI117853
(lp175
F0.5
aF0.5
asI107059
(lp176
F0.4
asI100916
(lp177
F1.0
aF0.6666666666666666
asI127541
(lp178
F1.0
asI129590
(lp179
F1.0
asI110632
(lp180
F0.6666666666666666
asI109118
(lp181
F1.0
asI102976
(lp182
F0.8
aF0.4
asI102977
(lp183
F1.0
asI102978
(lp184
F1.0
asI102979
(lp185
F1.0
asI102980
(lp186
F1.0
asI113223
(lp187
F0.6666666666666666
asI113224
(lp188
F1.0
asI102985
(lp189
F1.0
asI119371
(lp190
F1.0
asI121423
(lp191
F1.0
asI102158
(lp192
F0.2222222222222222
aF0.4444444444444444
aF0.4444444444444444
aF0.2222222222222222
asI137814
(lp193
F1.0
asI111197
(lp194
F0.4
aF0.4
asI112826
(lp195
F1.0
aF1.0
aF1.0
asI103016
(lp196
F1.0
asI129127
(lp197
F0.8571428571428571
aF0.42857142857142855
aF0.2857142857142857
asI107965
(lp198
F0.3333333333333333
aF0.6666666666666666
aF0.3333333333333333
asI113274
(lp199
F0.25
aF0.25
aF0.25
asI109179
(lp200
F0.5
aF1.0
asI100990
(lp201
F0.5
asI105089
(lp202
F1.0
asI103048
(lp203
F1.0
asI137870
(lp204
F1.0
aF1.0
aF1.0
asI113296
(lp205
F1.0
asI133777
(lp206
F1.0
asI113298
(lp207
F1.0
asI111252
(lp208
F1.0
asI103061
(lp209
F0.6666666666666666
asI125722
(lp210
F0.6666666666666666
aF0.6666666666666666
asI116507
(lp211
F0.6666666666666666
asI137897
(lp212
F1.0
asI127662
(lp213
F1.0
asI115375
(lp214
F0.5
aF0.5
asI125621
(lp215
F0.6666666666666666
asI119481
(lp216
F1.0
asI101052
(lp217
F0.5
asI105153
(lp218
F0.5
asI117443
(lp219
F1.0
asI109254
(lp220
F1.0
asI131784
(lp221
F1.0
asI111306
(lp222
F0.6666666666666666
asI119499
(lp223
F1.0
aF1.0
asI101068
(lp224
F0.6666666666666666
asI121549
(lp225
F0.6666666666666666
asI103118
(lp226
F0.3333333333333333
aF0.8333333333333334
asI130823
(lp227
F1.0
asI111736
(lp228
F0.6666666666666666
aF0.6666666666666666
aF0.6666666666666666
aF0.6666666666666666
aF0.6666666666666666
asI105175
(lp229
F0.6666666666666666
asI121560
(lp230
F0.6666666666666666
asI101083
(lp231
F0.6666666666666666
asI125660
(lp232
F1.0
asI105181
(lp233
F0.6666666666666666
aF0.6666666666666666
asI104159
(lp234
F0.5
asI137951
(lp235
F1.0
asI105864
(lp236
F1.0
aF1.0
asI109283
(lp237
F0.5
aF0.75
aF0.75
asI105189
(lp238
F0.6666666666666666
asI123623
(lp239
F1.0
asI123625
(lp240
F1.0
asI111338
(lp241
F0.6666666666666666
asI111339
(lp242
F1.0
asI111341
(lp243
F0.6363636363636364
aF0.18181818181818182
asI109298
(lp244
F0.6666666666666666
aF0.6666666666666666
asI133876
(lp245
F1.0
asI129782
(lp246
F1.0
aF1.0
aF1.0
aF1.0
asI129783
(lp247
F1.0
aF1.0
aF1.0
aF1.0
asI113401
(lp248
F0.6666666666666666
asI109306
(lp249
F1.0
aF1.0
aF1.0
asI109307
(lp250
F1.0
aF1.0
aF1.0
asI107260
(lp251
F0.18181818181818182
aF0.18181818181818182
aF0.2727272727272727
aF0.2727272727272727
asI115454
(lp252
F1.0
asI121600
(lp253
F1.0
asI125700
(lp254
F1.0
aF1.0
aF1.0
asI107277
(lp255
F1.0
asI129734
(lp256
F1.0
asI103194
(lp257
F0.6666666666666666
aF0.6666666666666666
aF0.6666666666666666
asI133920
(lp258
F1.0
asI111394
(lp259
F1.0
aF1.0
asI111395
(lp260
F1.0
aF1.0
asI129832
(lp261
F0.6666666666666666
asI101165
(lp262
F0.6666666666666666
asI133213
(lp263
F0.75
asI130184
(lp264
F1.0
asI101179
(lp265
F1.0
asI115516
(lp266
F0.6666666666666666
asI101181
(lp267
F1.0
asI129856
(lp268
F1.0
asI129860
(lp269
F0.6666666666666666
asI103239
(lp270
F1.0
asI110392
(lp271
F1.0
asI115548
(lp272
F0.6666666666666666
aF0.6666666666666666
asI115549
(lp273
F0.3333333333333333
aF0.3333333333333333
aF0.3333333333333333
asI115550
(lp274
F1.0
asI127418
(lp275
F1.0
asI129892
(lp276
F1.0
asI102886
(lp277
F1.0
asI101180
(lp278
F1.0
asI134004
(lp279
F0.6666666666666666
aF0.6666666666666666
aF0.6666666666666666
asI129911
(lp280
F1.0
asI117624
(lp281
F0.6666666666666666
aF0.6666666666666666
asI103290
(lp282
F0.5714285714285714
asI113531
(lp283
F0.4
aF0.6
aF0.4
asI101246
(lp284
F1.0
asI101247
(lp285
F0.6666666666666666
asI113539
(lp286
F1.0
asI111493
(lp287
F0.375
aF0.375
aF0.25
asI113542
(lp288
F1.0
asI109450
(lp289
F0.4
asI105358
(lp290
F1.0
asI103917
(lp291
F1.0
aF1.0
aF0.6666666666666666
aF0.6666666666666666
asI105363
(lp292
F0.6666666666666666
asI111510
(lp293
F0.6666666666666666
aF0.6666666666666666
asI113559
(lp294
F0.6666666666666666
asI126447
(lp295
F1.0
asI107421
(lp296
F1.0
asI101279
(lp297
F0.8333333333333334
asI113569
(lp298
F1.0
asI113571
(lp299
F1.0
asI123812
(lp300
F1.0
asI107429
(lp301
F0.6666666666666666
asI107430
(lp302
F1.0
asI124147
(lp303
F0.6666666666666666
aF0.6666666666666666
aF0.6666666666666666
asI121768
(lp304
F0.6666666666666666
aF0.6666666666666666
aF0.6666666666666666
aF0.6666666666666666
aF0.6666666666666666
aF0.6666666666666666
asI115625
(lp305
F1.0
asI129973
(lp306
F1.0
asI107449
(lp307
F0.6666666666666666
asI107450
(lp308
F1.0
asI105411
(lp309
F0.5
aF0.5
asI115652
(lp310
F0.6666666666666666
asI103368
(lp311
F1.0
aF1.0
asI103369
(lp312
F1.0
aF1.0
asI101324
(lp313
F0.6666666666666666
asI111568
(lp314
F0.6666666666666666
asI119761
(lp315
F1.0
asI127960
(lp316
F1.0
aF1.0
asI132061
(lp317
F1.0
asI101342
(lp318
F0.6666666666666666
asI107487
(lp319
F1.0
asI134114
(lp320
F0.6666666666666666
asI127973
(lp321
F0.6666666666666666
asI134120
(lp322
F1.0
asI103401
(lp323
F0.6666666666666666
asI136170
(lp324
F1.0
asI123883
(lp325
F1.0
asI123884
(lp326
F1.0
asI107101
(lp327
F1.0
asI127488
(lp328
F0.6666666666666666
aF0.6666666666666666
asI103436
(lp329
F1.0
asI113677
(lp330
F0.6666666666666666
asI136206
(lp331
F1.0
asI111635
(lp332
F1.0
asI113686
(lp333
F0.75
asI107546
(lp334
F1.0
asI109600
(lp335
F0.2857142857142857
aF0.2857142857142857
aF0.2857142857142857
asI107555
(lp336
F0.6666666666666666
asI123948
(lp337
F0.75
asI113714
(lp338
F1.0
aF1.0
asI101428
(lp339
F1.0
asI101429
(lp340
F1.0
asI115551
(lp341
F1.0
asI130109
(lp342
F1.0
aF1.0
asI105538
(lp343
F1.0
asI126475
(lp344
F0.6666666666666666
asI103493
(lp345
F1.0
aF1.0
asI109642
(lp346
F1.0
asI113741
(lp347
F1.0
asI106680
(lp348
F1.0
asI123997
(lp349
F1.0
asI103532
(lp350
F1.0
aF0.2857142857142857
asI105583
(lp351
F1.0
asI101489
(lp352
F1.0
asI108315
(lp353
F1.0
asI103543
(lp354
F0.8333333333333334
asI128120
(lp355
F1.0
asI128122
(lp356
F0.5
asI128127
(lp357
F1.0
asI107649
(lp358
F0.5
aF0.6666666666666666
asI103556
(lp359
F1.0
aF1.0
asI115848
(lp360
F1.0
aF1.0
asI132235
(lp361
F0.5
asI122050
(lp362
F1.0
asI109713
(lp363
F1.0
asI107666
(lp364
F0.6666666666666666
asI122005
(lp365
F1.0
asI117273
(lp366
F0.6666666666666666
asI119960
(lp367
F0.6666666666666666
asI132292
(lp368
F1.0
asI113818
(lp369
F1.0
asI105632
(lp370
F1.0
asI104987
(lp371
F1.0
asI107688
(lp372
F0.6666666666666666
asI119977
(lp373
F0.6666666666666666
asI105644
(lp374
F0.6666666666666666
aF0.6666666666666666
asI113845
(lp375
F0.6666666666666666
asI101236
(lp376
F0.5
asI101566
(lp377
F1.0
aF1.0
asI120002
(lp378
F1.0
asI107716
(lp379
F1.0
asI130248
(lp380
F1.0
aF1.0
aF1.0
aF1.0
aF1.0
asI132298
(lp381
F0.6666666666666666
asI101581
(lp382
F0.4
aF0.4
asI107726
(lp383
F0.4
aF0.4
aF0.4
asI103631
(lp384
F0.6666666666666666
asI103634
(lp385
F0.8333333333333334
asI109782
(lp386
F0.6666666666666666
asI103883
(lp387
F0.6
asI130270
(lp388
F1.0
asI105697
(lp389
F0.6666666666666666
aF0.6666666666666666
asI105701
(lp390
F0.6666666666666666
asI111846
(lp391
F1.0
asI126183
(lp392
F0.6666666666666666
aF0.6666666666666666
asI126184
(lp393
F0.6666666666666666
aF0.6666666666666666
asI133671
(lp394
F0.6666666666666666
asI109807
(lp395
F0.2857142857142857
aF0.2857142857142857
asI111856
(lp396
F1.0
asI102611
(lp397
F0.25
aF0.25
asI128245
(lp398
F1.0
asI134396
(lp399
F1.0
aF1.0
asI109821
(lp400
F0.6
asI122111
(lp401
F1.0
aF1.0
asI112512
(lp402
F0.6666666666666666
asI111883
(lp403
F1.0
asI128271
(lp404
F0.6666666666666666
aF0.6666666666666666
aF0.6666666666666666
aF0.6666666666666666
aF0.6666666666666666
asI101648
(lp405
F0.5
aF0.5
aF0.5
asI101649
(lp406
F0.6666666666666666
aF0.6666666666666666
aF0.6666666666666666
asI105747
(lp407
F0.4
asI115990
(lp408
F0.6666666666666666
aF0.6666666666666666
aF0.6666666666666666
aF0.6666666666666666
aF0.6666666666666666
asI109848
(lp409
F0.6666666666666666
asI101657
(lp410
F0.6666666666666666
asI115994
(lp411
F0.6666666666666666
asI107822
(lp412
F1.0
asI105779
(lp413
F0.6666666666666666
asI103732
(lp414
F1.0
asI101598
(lp415
F0.6666666666666666
asI126516
(lp416
F1.0
aF1.0
asI132410
(lp417
F1.0
asI102623
(lp418
F1.0
asI109885
(lp419
F0.75
aF0.5
asI124227
(lp420
F0.4
asI128325
(lp421
F1.0
asI122184
(lp422
F1.0
aF1.0
asI116045
(lp423
F1.0
asI134478
(lp424
F1.0
aF1.0
asI131080
(lp425
F1.0
asI122196
(lp426
F1.0
asI116054
(lp427
F0.6666666666666666
asI122201
(lp428
F1.0
asI109919
(lp429
F1.0
asI109920
(lp430
F0.875
aF0.25
asI109925
(lp431
F1.0
asI101736
(lp432
F0.6666666666666666
asI132463
(lp433
F0.6666666666666666
asI107898
(lp434
F0.5
asI130431
(lp435
F0.6666666666666666
aF0.6666666666666666
asI114049
(lp436
F1.0
asI107912
(lp437
F0.6666666666666666
asI122257
(lp438
F0.5
aF0.5
aF0.5
asI103828
(lp439
F0.6666666666666666
asI104796
(lp440
F0.4
aF0.4
aF0.4
aF0.4
asI100932
(lp441
F0.6
aF0.2
asI114084
(lp442
F0.6666666666666666
asI101797
(lp443
F0.6666666666666666
aF0.6666666666666666
asI101798
(lp444
F0.08108108108108109
aF0.05405405405405406
aF0.08108108108108109
aF0.05405405405405406
aF0.05405405405405406
aF0.05405405405405406
aF0.05405405405405406
aF0.05405405405405406
aF0.05405405405405406
asI103847
(lp445
F0.5
aF0.5
asI126378
(lp446
F1.0
asI128427
(lp447
F0.6666666666666666
asI129253
(lp448
F1.0
asI109811
(lp449
F0.5
aF0.5
asI111177
(lp450
F0.5
aF0.5
asI105912
(lp451
F0.16666666666666666
aF0.25
aF0.16666666666666666
aF0.16666666666666666
aF0.16666666666666666
aF0.5833333333333334
aF0.16666666666666666
aF0.16666666666666666
aF0.16666666666666666
asI101819
(lp452
F1.0
aF1.0
asI101820
(lp453
F1.0
aF1.0
asI101821
(lp454
F1.0
aF1.0
asI116158
(lp455
F1.0
asI101823
(lp456
F1.0
asI130501
(lp457
F1.0
asI105931
(lp458
F0.6
asI126412
(lp459
F0.5
aF0.75
asI107981
(lp460
F1.0
asI105936
(lp461
F1.0
asI110033
(lp462
F1.0
aF1.0
asI132562
(lp463
F0.5
aF0.5
asI114134
(lp464
F0.6666666666666666
asI130519
(lp465
F0.5
asI123813
(lp466
F1.0
asI103907
(lp467
F1.0
asI105956
(lp468
F1.0
asI126440
(lp469
F1.0
asI136685
(lp470
F1.0
asI122109
(lp471
F0.6666666666666666
asI108018
(lp472
F1.0
asI114167
(lp473
F1.0
asI103929
(lp474
F0.4
aF0.4
asI110074
(lp475
F0.4
aF0.4
aF0.6
aF0.4
aF0.4
aF0.4
asI128508
(lp476
F1.0
aF1.0
asI124415
(lp477
F1.0
aF1.0
asI103937
(lp478
F1.0
aF1.0
aF1.0
asI105988
(lp479
F0.5
asI108043
(lp480
F0.6666666666666666
asI101902
(lp481
F0.75
asI118308
(lp482
F1.0
aF1.0
asI122409
(lp483
F1.0
asI108079
(lp484
F0.5
asI110131
(lp485
F0.6666666666666666
asI103988
(lp486
F1.0
asI103992
(lp487
F1.0
asI106041
(lp488
F0.6666666666666666
aF0.6666666666666666
asI110139
(lp489
F0.6666666666666666
asI104000
(lp490
F1.0
asI110148
(lp491
F0.5
asI118348
(lp492
F1.0
aF0.6666666666666666
aF0.6666666666666666
aF0.6666666666666666
asI110158
(lp493
F1.0
asI108121
(lp494
F1.0
asI112221
(lp495
F1.0
asI104032
(lp496
F0.6666666666666666
aF1.0
asI104033
(lp497
F0.6666666666666666
aF0.6666666666666666
asI106086
(lp498
F1.0
asI128617
(lp499
F1.0
asI130672
(lp500
F1.0
aF1.0
asI112245
(lp501
F1.0
asI106431
(lp502
F1.0
aF1.0
asI116351
(lp503
F1.0
asI110208
(lp504
F0.5
asI124555
(lp505
F0.6666666666666666
asI128655
(lp506
F1.0
asI118417
(lp507
F0.6666666666666666
asI132757
(lp508
F0.6666666666666666
asI134806
(lp509
F1.0
asI132759
(lp510
F1.0
asI124569
(lp511
F1.0
asI130714
(lp512
F0.6666666666666666
asI130720
(lp513
F0.75
aF0.5
aF0.5
aF0.5
asI129308
(lp514
F1.0
asI116394
(lp515
F1.0
asI116397
(lp516
F1.0
asI130736
(lp517
F1.0
aF1.0
asI107465
(lp518
F0.5
asI136883
(lp519
F1.0
asI120500
(lp520
F0.5
asI114359
(lp521
F1.0
asI102074
(lp522
F0.8333333333333334
aF0.5
asI102082
(lp523
F1.0
asI118470
(lp524
F0.6666666666666666
asI122568
(lp525
F1.0
asI118480
(lp526
F1.0
asI102099
(lp527
F1.0
asI102101
(lp528
F0.6666666666666666
asI110876
(lp529
F1.0
asI136919
(lp530
F0.6666666666666666
asI126681
(lp531
F1.0
asI130779
(lp532
F1.0
aF1.0
asI100063
(lp533
F1.0
asI117712
(lp534
F1.0
asI102966
(lp535
F1.0
asI116460
(lp536
F1.0
aF1.0
asI108269
(lp537
F0.5
aF0.5
asI128755
(lp538
F1.0
asI116469
(lp539
F0.5
aF0.75
asI104535
(lp540
F0.6666666666666666
asI130687
(lp541
F0.6666666666666666
asI110332
(lp542
F0.6666666666666666
aF0.6666666666666666
aF0.6666666666666666
asI108285
(lp543
F1.0
asI130816
(lp544
F1.0
asI100098
(lp545
F1.0
asI103041
(lp546
F0.6666666666666666
asI100110
(lp547
F0.6666666666666666
asI128786
(lp548
F1.0
asI128789
(lp549
F0.5
asI118551
(lp550
F1.0
asI102168
(lp551
F0.5
aF0.5
asI118553
(lp552
F1.0
asI128795
(lp553
F1.0
asI130844
(lp554
F0.5
aF0.75
aF0.5
asI100125
(lp555
F0.5
asI102174
(lp556
F1.0
asI102175
(lp557
F0.3333333333333333
asI106278
(lp558
F1.0
aF1.0
aF1.0
asI114993
(lp559
F1.0
asI106284
(lp560
F0.6666666666666666
aF0.6666666666666666
aF0.6666666666666666
aF0.6666666666666666
asI126768
(lp561
F0.6666666666666666
asI121480
(lp562
F0.5
asI112439
(lp563
F1.0
asI122680
(lp564
F1.0
aF1.0
asI102204
(lp565
F0.5
aF0.75
asI120638
(lp566
F0.75
asI122691
(lp567
F0.4
aF0.4
asI114505
(lp568
F0.6666666666666666
asI100170
(lp569
F0.8888888888888888
asI106315
(lp570
F1.0
asI106316
(lp571
F1.0
asI106317
(lp572
F1.0
asI104273
(lp573
F1.0
asI112466
(lp574
F0.6666666666666666
aF0.6666666666666666
aF0.6666666666666666
aF0.6666666666666666
asI132963
(lp575
F0.6666666666666666
aF0.6666666666666666
aF0.6666666666666666
asI109204
(lp576
F0.75
asI104319
(lp577
F1.0
asI110464
(lp578
F0.6666666666666666
aF0.6666666666666666
asI104321
(lp579
F1.0
asI108419
(lp580
F0.6666666666666666
asI130950
(lp581
F0.6666666666666666
asI108423
(lp582
F0.75
asI108426
(lp583
F0.6666666666666666
asI124812
(lp584
F1.0
asI116621
(lp585
F0.25
aF0.875
aF0.25
asI112527
(lp586
F1.0
asI110484
(lp587
F0.5
aF0.5
asI106137
(lp588
F0.5
asI119748
(lp589
F1.0
asI128925
(lp590
F1.0
asI110495
(lp591
F1.0
asI104356
(lp592
F0.6666666666666666
asI135086
(lp593
F1.0
asI114675
(lp594
F1.0
asI102325
(lp595
F1.0
asI108470
(lp596
F1.0
asI102327
(lp597
F0.6666666666666666
asI102332
(lp598
F0.6666666666666666
aF0.6666666666666666
asI122815
(lp599
F1.0
asI122816
(lp600
F1.0
asI122817
(lp601
F1.0
asI104388
(lp602
F0.6666666666666666
asI131014
(lp603
F1.0
asI114640
(lp604
F0.4
asI114641
(lp605
F0.2857142857142857
aF0.8571428571428571
asI128980
(lp606
F1.0
asI111950
(lp607
F1.0
asI118742
(lp608
F0.6666666666666666
asI116699
(lp609
F1.0
asI102365
(lp610
F1.0
aF1.0
aF1.0
aF1.0
asI105702
(lp611
F1.0
asI135142
(lp612
F1.0
asI110569
(lp613
F0.6666666666666666
asI110577
(lp614
F0.6666666666666666
asI137203
(lp615
F0.6666666666666666
asI100346
(lp616
F1.0
aF1.0
asI131068
(lp617
F1.0
aF1.0
asI116733
(lp618
F0.6666666666666666
as.